ASxxxx Linker V03.00 + NoICE + sdld,  page 1.
Hexadecimal  [32-Bits]

Area                                    Addr        Size        Decimal Bytes (Attributes)
--------------------------------        ----        ----        ------- ----- ------------
.  .ABS.                            00000000    00000000 =           0. bytes (ABS,CON)

      Value  Global                              Global Defined In Module
      -----  --------------------------------   ------------------------
     00000000  .__.ABS.                           SetTileMap
     00000000  _rRAMG                             
     00000000  l__BASE                         
     00000000  l__BSS                          
     00000000  l__CABS                         
     00000000  l__CODE_0                       
     00000000  l__DABS                         
     00000000  l__HEADER                       
     00000000  l__HEAP                         
     00000000  l__HEAP_END                     
     00000000  l__HRAM                         
     00000000  l__LIT                          
     00000000  s__CABS                         
     00000000  s__DABS                         
     00000000  s__HEADER                       
     00000000  s__HEADER0                      
     00000000  s__HEADER1                      
     00000000  s__HEADER10                     
     00000000  s__HEADER11                     
     00000000  s__HEADER2                      
     00000000  s__HEADER3                      
     00000000  s__HEADER4                      
     00000000  s__HEADER5                      
     00000000  s__HEADER6                      
     00000000  s__HEADER7                      
     00000000  s__HEADER8                      
     00000000  s__HEADER9                      
     00000000  s__HEADERa                      
     00000000  s__HEADERb                      
     00000000  s__HEADERc                      
     00000000  s__HEADERd                      
     00000000  s__HEADERe                      
     00000000  s__HEADERf                      
     00000000  s__HRAM                         
     00000000  s__HRAM12                       
     00000001  l__GSFINAL                      
     00000001  l__HEADER0                      
     00000001  l__HEADER11                     
     00000001  l__HEADER9                      
     00000001  l__HEADERa                      
     00000001  l__HEADERb                      
     00000001  l__HEADERd                      
     00000001  l__HEADERe                      
     00000002  l__HEADER5                      
     00000002  l__HEADERc                      
     00000002  l__HEADERf                      
     00000003  l__HEADER8                      
     00000003  l__HRAM12                       
     00000005  l__HEADER1                      
     00000006  l__HEADER7                      
ASxxxx Linker V03.00 + NoICE + sdld,  page 2.
Hexadecimal  [32-Bits]

Area                                    Addr        Size        Decimal Bytes (Attributes)
--------------------------------        ----        ----        ------- ----- ------------
.  .ABS.                            00000000    00000000 =           0. bytes (ABS,CON)

      Value  Global                              Global Defined In Module
      -----  --------------------------------   ------------------------
     00000007  l__HEADER2                      
     00000008  l__HEADER3                      
     0000000C  l__GSINIT                       
     00000030  l__HEADER6                      
     0000004C  l__HEADER4                      
     00000084  l__HEADER10                     
     000000C1  l__DATA                         
     00000200  s__CODE                         
     000003F7  l__HOME                         
     000004C2  l__INITIALIZED                  
     000004C2  l__INITIALIZER                  
     00001063  l__CODE                         
     00001263  s__HOME                         
     0000165A  s__BASE                         
     0000165A  s__CODE_0                       
     0000165A  s__INITIALIZER                  
     0000165A  s__LIT                          
     00001B1C  s__GSINIT                       
     00001B28  s__GSFINAL                      
     00002000  _rROMB0                            
     00003000  _rROMB1                            
     00004000  _rRAMB                             
     00008000  __VRAM                             
     00008000  __VRAM8000                         
     00008800  __VRAM8800                         
     00009000  __VRAM9000                         
     00009800  __SCRN0                            
     00009C00  __SCRN1                            
     0000A000  __SRAM                             
     0000C000  __RAM                              
     0000C000  _shadow_OAM                     
     0000C0A0  s__DATA                         
     0000C161  s__BSS                          
     0000C161  s__INITIALIZED                  
     0000C623  s__HEAP                         
     0000C623  s__HEAP_END                     
     0000D000  __RAMBANK                          
     0000E000  .STACK                          
     0000FE00  __OAMRAM                           
     0000FF00  _P1_REG                            
     0000FF00  __IO                               
     0000FF01  _SB_REG                            
     0000FF02  _SC_REG                            
     0000FF04  _DIV_REG                           
     0000FF05  _TIMA_REG                          
     0000FF06  _TMA_REG                           
     0000FF07  _TAC_REG                           
     0000FF0F  _IF_REG                            
     0000FF10  _NR10_REG                          
     0000FF11  _NR11_REG                          
     0000FF12  _NR12_REG                          
ASxxxx Linker V03.00 + NoICE + sdld,  page 3.
Hexadecimal  [32-Bits]

Area                                    Addr        Size        Decimal Bytes (Attributes)
--------------------------------        ----        ----        ------- ----- ------------
.  .ABS.                            00000000    00000000 =           0. bytes (ABS,CON)

      Value  Global                              Global Defined In Module
      -----  --------------------------------   ------------------------
     0000FF13  _NR13_REG                          
     0000FF14  _NR14_REG                          
     0000FF16  _NR21_REG                          
     0000FF17  _NR22_REG                          
     0000FF18  _NR23_REG                          
     0000FF19  _NR24_REG                          
     0000FF1A  _NR30_REG                          
     0000FF1B  _NR31_REG                          
     0000FF1C  _NR32_REG                          
     0000FF1D  _NR33_REG                          
     0000FF1E  _NR34_REG                          
     0000FF20  _NR41_REG                          
     0000FF21  _NR42_REG                          
     0000FF22  _NR43_REG                          
     0000FF23  _NR44_REG                          
     0000FF24  _NR50_REG                          
     0000FF25  _NR51_REG                          
     0000FF26  _NR52_REG                          
     0000FF30  _AUD3WAVE                          
     0000FF30  _PCM_SAMPLE                        
     0000FF30  __AUD3WAVERAM                      
     0000FF40  _LCDC_REG                          
     0000FF41  _STAT_REG                          
     0000FF42  _SCY_REG                           
     0000FF43  _SCX_REG                           
     0000FF44  _LY_REG                            
     0000FF45  _LYC_REG                           
     0000FF46  _DMA_REG                           
     0000FF47  _BGP_REG                           
     0000FF48  _OBP0_REG                          
     0000FF49  _OBP1_REG                          
     0000FF4A  _WY_REG                            
     0000FF4B  _WX_REG                            
     0000FF4D  _KEY1_REG                          
     0000FF4F  _VBK_REG                           
     0000FF51  _HDMA1_REG                         
     0000FF52  _HDMA2_REG                         
     0000FF53  _HDMA3_REG                         
     0000FF54  _HDMA4_REG                         
     0000FF55  _HDMA5_REG                         
     0000FF56  _RP_REG                            
     0000FF68  _BCPS_REG                          
     0000FF69  _BCPD_REG                          
     0000FF6A  _OCPS_REG                          
     0000FF6B  _OCPD_REG                          
     0000FF70  _SVBK_REG                          
     0000FF76  _PCM12_REG                         
     0000FF77  _PCM34_REG                         
     0000FF80  .refresh_OAM                    
     0000FF80  __HRAM                             
     0000FFFF  _IE_REG                            

ASxxxx Linker V03.00 + NoICE + sdld,  page 4.
Hexadecimal  [32-Bits]

Area                                    Addr        Size        Decimal Bytes (Attributes)
--------------------------------        ----        ----        ------- ----- ------------
_CODE                               00000200    00001063 =        4195. bytes (REL,CON)

      Value  Global                              Global Defined In Module
      -----  --------------------------------   ------------------------
     00000200  A$lcc74000$88                      main
     00000200  C$fixed.c$61$0_0$121               main
     00000200  G$sqrt$0$0                         main
     00000200  _sqrt                              main
     00000202  A$lcc74000$90                      main
     00000203  A$lcc74000$91                      main
     00000204  A$lcc74000$92                      main
     00000205  A$lcc74000$93                      main
     00000206  A$lcc74000$94                      main
     00000207  A$lcc74000$95                      main
     00000208  A$lcc74000$96                      main
     0000020A  A$lcc74000$97                      main
     0000020B  A$lcc74000$98                      main
     0000020C  A$lcc74000$99                      main
     0000020D  A$lcc74000$100                     main
     0000020F  A$lcc74000$101                     main
     00000210  A$lcc74000$102                     main
     00000211  A$lcc74000$103                     main
     00000214  A$lcc74000$104                     main
     00000215  A$lcc74000$105                     main
     00000217  A$lcc74000$106                     main
     00000218  A$lcc74000$107                     main
     0000021A  A$lcc74000$108                     main
     0000021B  A$lcc74000$109                     main
     0000021C  A$lcc74000$110                     main
     0000021D  A$lcc74000$111                     main
     0000021E  A$lcc74000$112                     main
     0000021F  A$lcc74000$113                     main
     00000220  A$lcc74000$114                     main
     00000221  A$lcc74000$115                     main
     00000224  A$lcc74000$116                     main
     00000226  A$lcc74000$117                     main
     00000227  A$lcc74000$118                     main
     00000228  A$lcc74000$119                     main
     00000229  A$lcc74000$127                     main
     00000229  C$fixed.c$25$1_0$121               main
     00000229  C$fixed.c$69$1_0$121               main
     0000022B  A$lcc74000$128                     main
     0000022C  A$lcc74000$129                     main
     0000022D  A$lcc74000$130                     main
     0000022E  A$lcc74000$131                     main
     0000022F  A$lcc74000$132                     main
     00000230  A$lcc74000$133                     main
     00000231  A$lcc74000$134                     main
     00000232  A$lcc74000$135                     main
     00000233  A$lcc74000$136                     main
     00000234  A$lcc74000$137                     main
     00000235  A$lcc74000$138                     main
     00000237  A$lcc74000$139                     main
     00000238  A$lcc74000$140                     main
ASxxxx Linker V03.00 + NoICE + sdld,  page 5.
Hexadecimal  [32-Bits]

Area                                    Addr        Size        Decimal Bytes (Attributes)
--------------------------------        ----        ----        ------- ----- ------------
_CODE                               00000200    00001063 =        4195. bytes (REL,CON)

      Value  Global                              Global Defined In Module
      -----  --------------------------------   ------------------------
     00000239  A$lcc74000$141                     main
     0000023A  A$lcc74000$142                     main
     0000023B  A$lcc74000$143                     main
     0000023C  A$lcc74000$144                     main
     0000023D  A$lcc74000$145                     main
     0000023E  A$lcc74000$146                     main
     00000241  A$lcc74000$147                     main
     00000243  A$lcc74000$148                     main
     00000244  A$lcc74000$149                     main
     00000245  A$lcc74000$150                     main
     00000246  A$lcc74000$151                     main
     00000247  A$lcc74000$152                     main
     00000248  A$lcc74000$153                     main
     00000249  A$lcc74000$154                     main
     0000024A  A$lcc74000$156                     main
     0000024C  A$lcc74000$157                     main
     0000024D  A$lcc74000$158                     main
     0000024E  A$lcc74000$159                     main
     0000024F  A$lcc74000$160                     main
     00000250  A$lcc74000$161                     main
     00000251  A$lcc74000$162                     main
     00000252  A$lcc74000$163                     main
     00000253  A$lcc74000$164                     main
     00000254  A$lcc74000$165                     main
     00000255  A$lcc74000$166                     main
     00000256  A$lcc74000$170                     main
     00000257  A$lcc74000$173                     main
     00000259  A$lcc74000$175                     main
     0000025B  A$lcc74000$177                     main
     0000025C  A$lcc74000$178                     main
     0000025D  A$lcc74000$179                     main
     0000025E  A$lcc74000$180                     main
     0000025F  A$lcc74000$181                     main
     00000260  A$lcc74000$182                     main
     00000261  A$lcc74000$185                     main
     00000262  A$lcc74000$186                     main
     00000263  A$lcc74000$187                     main
     00000264  A$lcc74000$188                     main
     00000265  A$lcc74000$189                     main
     00000266  A$lcc74000$190                     main
     00000268  A$lcc74000$191                     main
     0000026A  A$lcc74000$192                     main
     0000026C  A$lcc74000$193                     main
     0000026E  A$lcc74000$194                     main
     0000026F  A$lcc74000$195                     main
     00000271  A$lcc74000$197                     main
     00000273  A$lcc74000$198                     main
     00000275  A$lcc74000$199                     main
     00000276  A$lcc74000$201                     main
     00000278  A$lcc74000$203                     main
     0000027A  A$lcc74000$204                     main
ASxxxx Linker V03.00 + NoICE + sdld,  page 6.
Hexadecimal  [32-Bits]

Area                                    Addr        Size        Decimal Bytes (Attributes)
--------------------------------        ----        ----        ------- ----- ------------
_CODE                               00000200    00001063 =        4195. bytes (REL,CON)

      Value  Global                              Global Defined In Module
      -----  --------------------------------   ------------------------
     0000027B  A$lcc74000$205                     main
     0000027C  A$lcc74000$206                     main
     0000027D  A$lcc74000$207                     main
     0000027F  A$lcc74000$208                     main
     00000280  A$lcc74000$209                     main
     00000281  A$lcc74000$211                     main
     00000282  A$lcc74000$212                     main
     00000283  A$lcc74000$213                     main
     00000284  A$lcc74000$214                     main
     00000285  A$lcc74000$215                     main
     00000287  A$lcc74000$216                     main
     00000288  A$lcc74000$217                     main
     00000289  A$lcc74000$218                     main
     0000028A  A$lcc74000$219                     main
     0000028B  A$lcc74000$220                     main
     0000028C  A$lcc74000$221                     main
     0000028D  A$lcc74000$222                     main
     0000028F  A$lcc74000$223                     main
     00000290  A$lcc74000$224                     main
     00000291  A$lcc74000$225                     main
     00000292  A$lcc74000$226                     main
     00000294  A$lcc74000$228                     main
     00000295  A$lcc74000$229                     main
     00000296  A$lcc74000$230                     main
     00000297  A$lcc74000$231                     main
     00000298  A$lcc74000$232                     main
     0000029A  A$lcc74000$233                     main
     0000029B  A$lcc74000$234                     main
     0000029C  A$lcc74000$235                     main
     0000029D  A$lcc74000$236                     main
     0000029E  A$lcc74000$237                     main
     0000029F  A$lcc74000$238                     main
     000002A0  A$lcc74000$239                     main
     000002A1  A$lcc74000$240                     main
     000002A3  A$lcc74000$242                     main
     000002A5  A$lcc74000$243                     main
     000002A7  A$lcc74000$244                     main
     000002A8  A$lcc74000$245                     main
     000002AA  A$lcc74000$246                     main
     000002AB  A$lcc74000$247                     main
     000002AD  A$lcc74000$248                     main
     000002AE  A$lcc74000$249                     main
     000002B0  A$lcc74000$250                     main
     000002B1  A$lcc74000$251                     main
     000002B3  A$lcc74000$252                     main
     000002B6  A$lcc74000$253                     main
     000002B7  A$lcc74000$254                     main
     000002B9  A$lcc74000$255                     main
     000002BA  A$lcc74000$256                     main
     000002BC  A$lcc74000$257                     main
     000002BD  A$lcc74000$258                     main
ASxxxx Linker V03.00 + NoICE + sdld,  page 7.
Hexadecimal  [32-Bits]

Area                                    Addr        Size        Decimal Bytes (Attributes)
--------------------------------        ----        ----        ------- ----- ------------
_CODE                               00000200    00001063 =        4195. bytes (REL,CON)

      Value  Global                              Global Defined In Module
      -----  --------------------------------   ------------------------
     000002BE  A$lcc74000$259                     main
     000002BF  A$lcc74000$260                     main
     000002C0  A$lcc74000$261                     main
     000002C1  A$lcc74000$262                     main
     000002C2  A$lcc74000$263                     main
     000002C3  A$lcc74000$264                     main
     000002C6  A$lcc74000$265                     main
     000002C8  A$lcc74000$266                     main
     000002C9  A$lcc74000$267                     main
     000002CA  A$lcc74000$268                     main
     000002CB  A$lcc74000$269                     main
     000002CC  A$lcc74000$270                     main
     000002CD  A$lcc74000$271                     main
     000002CE  A$lcc74000$272                     main
     000002CF  A$lcc74000$273                     main
     000002D1  A$lcc74000$274                     main
     000002D2  A$lcc74000$275                     main
     000002D3  A$lcc74000$276                     main
     000002D4  A$lcc74000$277                     main
     000002D6  A$lcc74000$278                     main
     000002D7  A$lcc74000$279                     main
     000002D8  A$lcc74000$280                     main
     000002D9  A$lcc74000$284                     main
     000002D9  C$fixed.c$71$1_0$121               main
     000002DC  A$lcc74000$289                     main
     000002DC  C$fixed.c$75$1_0$121               main
     000002DE  A$lcc74000$290                     main
     000002DF  A$lcc74000$291                     main
     000002E0  A$lcc74000$292                     main
     000002E1  A$lcc74000$296                     main
     000002E3  A$lcc74000$301                     main
     000002E3  C$fixed.c$76$1_0$121               main
     000002E3  XG$sqrt$0$0                        main
     000002E4  A$lcc74000$311                     main
     000002E4  C$fixed.c$103$1_0$147              main
     000002E4  G$rotate$0$0                       main
     000002E4  _rotate                            main
     000002E6  A$lcc74000$312                     main
     000002E8  A$lcc74000$313                     main
     000002E9  A$lcc74000$314                     main
     000002EA  A$lcc74000$315                     main
     000002EB  A$lcc74000$316                     main
     000002ED  A$lcc74000$317                     main
     000002EE  A$lcc74000$318                     main
     000002EF  A$lcc74000$319                     main
     000002F0  A$lcc74000$323                     main
     000002F0  C$fixed.c$105$2_0$147              main
     000002F1  A$lcc74000$324                     main
     000002F3  A$lcc74000$325                     main
     000002F4  A$lcc74000$326                     main
     000002F5  A$lcc74000$330                     main
ASxxxx Linker V03.00 + NoICE + sdld,  page 8.
Hexadecimal  [32-Bits]

Area                                    Addr        Size        Decimal Bytes (Attributes)
--------------------------------        ----        ----        ------- ----- ------------
_CODE                               00000200    00001063 =        4195. bytes (REL,CON)

      Value  Global                              Global Defined In Module
      -----  --------------------------------   ------------------------
     000002F5  C$fixed.c$108$3_0$149              main
     000002F7  A$lcc74000$331                     main
     000002F8  A$lcc74000$332                     main
     000002FA  A$lcc74000$333                     main
     000002FB  A$lcc74000$334                     main
     000002FD  A$lcc74000$335                     main
     000002FE  A$lcc74000$336                     main
     00000300  A$lcc74000$337                     main
     00000301  A$lcc74000$338                     main
     00000303  A$lcc74000$339                     main
     00000305  A$lcc74000$344                     main
     00000305  C$fixed.c$117$3_0$147              main
     00000307  A$lcc74000$345                     main
     00000308  A$lcc74000$346                     main
     00000309  A$lcc74000$347                     main
     0000030A  A$lcc74000$348                     main
     0000030B  A$lcc74000$349                     main
     0000030D  A$lcc74000$350                     main
     0000030E  A$lcc74000$351                     main
     0000030F  A$lcc74000$352                     main
     00000310  A$lcc74000$353                     main
     00000311  A$lcc74000$357                     main
     00000313  A$lcc74000$358                     main
     00000314  A$lcc74000$359                     main
     00000316  A$lcc74000$360                     main
     00000318  A$lcc74000$361                     main
     0000031B  A$lcc74000$365                     main
     0000031B  C$fixed.c$110$3_0$149              main
     0000031C  A$lcc74000$366                     main
     0000031D  A$lcc74000$367                     main
     0000031E  A$lcc74000$368                     main
     0000031F  A$lcc74000$369                     main
     00000320  A$lcc74000$370                     main
     00000321  A$lcc74000$371                     main
     00000322  A$lcc74000$372                     main
     00000323  A$lcc74000$373                     main
     00000326  A$lcc74000$374                     main
     00000327  A$lcc74000$375                     main
     00000328  A$lcc74000$376                     main
     00000329  A$lcc74000$377                     main
     0000032A  A$lcc74000$378                     main
     0000032C  A$lcc74000$379                     main
     0000032D  A$lcc74000$380                     main
     0000032E  A$lcc74000$381                     main
     0000032F  A$lcc74000$382                     main
     00000330  A$lcc74000$384                     main
     00000332  A$lcc74000$385                     main
     00000333  A$lcc74000$386                     main
     00000334  A$lcc74000$387                     main
     00000335  A$lcc74000$388                     main
     00000336  A$lcc74000$389                     main
ASxxxx Linker V03.00 + NoICE + sdld,  page 9.
Hexadecimal  [32-Bits]

Area                                    Addr        Size        Decimal Bytes (Attributes)
--------------------------------        ----        ----        ------- ----- ------------
_CODE                               00000200    00001063 =        4195. bytes (REL,CON)

      Value  Global                              Global Defined In Module
      -----  --------------------------------   ------------------------
     00000337  A$lcc74000$390                     main
     00000338  A$lcc74000$391                     main
     00000339  A$lcc74000$392                     main
     0000033A  A$lcc74000$393                     main
     0000033B  A$lcc74000$394                     main
     0000033C  A$lcc74000$395                     main
     0000033D  A$lcc74000$396                     main
     0000033E  A$lcc74000$397                     main
     0000033F  A$lcc74000$398                     main
     00000340  A$lcc74000$399                     main
     00000341  A$lcc74000$400                     main
     00000342  A$lcc74000$401                     main
     00000343  A$lcc74000$402                     main
     00000345  A$lcc74000$403                     main
     00000347  A$lcc74000$404                     main
     00000349  A$lcc74000$405                     main
     0000034B  A$lcc74000$406                     main
     0000034C  A$lcc74000$407                     main
     0000034E  A$lcc74000$409                     main
     00000350  A$lcc74000$410                     main
     00000352  A$lcc74000$411                     main
     00000353  A$lcc74000$413                     main
     00000355  A$lcc74000$414                     main
     00000358  A$lcc74000$415                     main
     0000035A  A$lcc74000$417                     main
     0000035D  A$lcc74000$422                     main
     0000035D  C$fixed.c$117$3_0$149              main
     0000035F  A$lcc74000$423                     main
     00000360  A$lcc74000$424                     main
     00000361  A$lcc74000$425                     main
     00000362  A$lcc74000$426                     main
     00000363  A$lcc74000$427                     main
     00000365  A$lcc74000$428                     main
     00000366  A$lcc74000$429                     main
     00000367  A$lcc74000$430                     main
     00000368  A$lcc74000$431                     main
     00000369  A$lcc74000$432                     main
     0000036B  A$lcc74000$433                     main
     0000036C  A$lcc74000$434                     main
     0000036D  A$lcc74000$435                     main
     0000036F  A$lcc74000$436                     main
     00000370  A$lcc74000$437                     main
     00000371  A$lcc74000$438                     main
     00000372  A$lcc74000$439                     main
     00000373  A$lcc74000$440                     main
     00000374  A$lcc74000$441                     main
     00000376  A$lcc74000$443                     main
     00000378  A$lcc74000$444                     main
     0000037A  A$lcc74000$446                     main
     0000037B  A$lcc74000$447                     main
     0000037D  A$lcc74000$448                     main
ASxxxx Linker V03.00 + NoICE + sdld,  page 10.
Hexadecimal  [32-Bits]

Area                                    Addr        Size        Decimal Bytes (Attributes)
--------------------------------        ----        ----        ------- ----- ------------
_CODE                               00000200    00001063 =        4195. bytes (REL,CON)

      Value  Global                              Global Defined In Module
      -----  --------------------------------   ------------------------
     0000037F  A$lcc74000$449                     main
     00000380  A$lcc74000$450                     main
     00000381  A$lcc74000$451                     main
     00000382  A$lcc74000$452                     main
     00000383  A$lcc74000$453                     main
     00000384  A$lcc74000$454                     main
     00000385  A$lcc74000$455                     main
     00000386  A$lcc74000$456                     main
     00000387  A$lcc74000$457                     main
     00000388  A$lcc74000$458                     main
     0000038B  A$lcc74000$459                     main
     0000038D  A$lcc74000$460                     main
     0000038E  A$lcc74000$461                     main
     0000038F  A$lcc74000$462                     main
     00000390  A$lcc74000$463                     main
     00000391  A$lcc74000$464                     main
     00000392  A$lcc74000$465                     main
     00000393  A$lcc74000$466                     main
     00000394  A$lcc74000$467                     main
     00000395  A$lcc74000$468                     main
     00000396  A$lcc74000$469                     main
     00000398  A$lcc74000$470                     main
     00000399  A$lcc74000$471                     main
     0000039A  A$lcc74000$472                     main
     0000039B  A$lcc74000$476                     main
     0000039B  C$fixed.c$118$3_0$149              main
     0000039D  A$lcc74000$477                     main
     0000039E  A$lcc74000$478                     main
     0000039F  A$lcc74000$479                     main
     000003A1  A$lcc74000$480                     main
     000003A2  A$lcc74000$481                     main
     000003A3  A$lcc74000$482                     main
     000003A4  A$lcc74000$483                     main
     000003A5  A$lcc74000$484                     main
     000003A6  A$lcc74000$485                     main
     000003A8  A$lcc74000$487                     main
     000003AA  A$lcc74000$488                     main
     000003AC  A$lcc74000$490                     main
     000003AD  A$lcc74000$491                     main
     000003AF  A$lcc74000$492                     main
     000003B1  A$lcc74000$493                     main
     000003B2  A$lcc74000$494                     main
     000003B3  A$lcc74000$495                     main
     000003B4  A$lcc74000$496                     main
     000003B7  A$lcc74000$497                     main
     000003B9  A$lcc74000$498                     main
     000003BA  A$lcc74000$499                     main
     000003BB  A$lcc74000$500                     main
     000003BC  A$lcc74000$501                     main
     000003BD  A$lcc74000$502                     main
     000003BE  A$lcc74000$503                     main
ASxxxx Linker V03.00 + NoICE + sdld,  page 11.
Hexadecimal  [32-Bits]

Area                                    Addr        Size        Decimal Bytes (Attributes)
--------------------------------        ----        ----        ------- ----- ------------
_CODE                               00000200    00001063 =        4195. bytes (REL,CON)

      Value  Global                              Global Defined In Module
      -----  --------------------------------   ------------------------
     000003BF  A$lcc74000$507                     main
     000003BF  C$fixed.c$121$3_0$149              main
     000003C1  A$lcc74000$508                     main
     000003C2  A$lcc74000$509                     main
     000003C3  A$lcc74000$510                     main
     000003C4  A$lcc74000$511                     main
     000003C6  A$lcc74000$512                     main
     000003C7  A$lcc74000$513                     main
     000003C8  A$lcc74000$514                     main
     000003C9  A$lcc74000$518                     main
     000003C9  C$fixed.c$122$3_0$149              main
     000003CA  A$lcc74000$519                     main
     000003CB  A$lcc74000$520                     main
     000003CC  A$lcc74000$521                     main
     000003CD  A$lcc74000$522                     main
     000003CE  A$lcc74000$523                     main
     000003CF  A$lcc74000$524                     main
     000003D0  A$lcc74000$525                     main
     000003D1  A$lcc74000$529                     main
     000003D1  C$fixed.c$125$3_0$147              main
     000003D3  A$lcc74000$530                     main
     000003D4  A$lcc74000$531                     main
     000003D5  A$lcc74000$532                     main
     000003D6  A$lcc74000$533                     main
     000003D8  A$lcc74000$534                     main
     000003D9  A$lcc74000$535                     main
     000003DA  A$lcc74000$536                     main
     000003DB  A$lcc74000$537                     main
     000003DE  A$lcc74000$538                     main
     000003E0  A$lcc74000$539                     main
     000003E1  A$lcc74000$540                     main
     000003E2  A$lcc74000$542                     main
     000003E3  A$lcc74000$543                     main
     000003E4  A$lcc74000$544                     main
     000003E5  A$lcc74000$545                     main
     000003E6  A$lcc74000$546                     main
     000003E7  A$lcc74000$547                     main
     000003E8  A$lcc74000$548                     main
     000003E9  A$lcc74000$549                     main
     000003EA  A$lcc74000$550                     main
     000003EB  A$lcc74000$551                     main
     000003EC  A$lcc74000$552                     main
     000003EE  A$lcc74000$553                     main
     000003EF  A$lcc74000$554                     main
     000003F0  A$lcc74000$555                     main
     000003F1  A$lcc74000$556                     main
     000003F3  A$lcc74000$560                     main
     000003F3  C$fixed.c$125$5_0$154              main
     000003F4  A$lcc74000$561                     main
     000003F5  A$lcc74000$562                     main
     000003F7  A$lcc74000$563                     main
ASxxxx Linker V03.00 + NoICE + sdld,  page 12.
Hexadecimal  [32-Bits]

Area                                    Addr        Size        Decimal Bytes (Attributes)
--------------------------------        ----        ----        ------- ----- ------------
_CODE                               00000200    00001063 =        4195. bytes (REL,CON)

      Value  Global                              Global Defined In Module
      -----  --------------------------------   ------------------------
     000003F8  A$lcc74000$564                     main
     000003FA  A$lcc74000$565                     main
     000003FB  A$lcc74000$566                     main
     000003FD  A$lcc74000$567                     main
     000003FE  A$lcc74000$571                     main
     000003FE  C$fixed.c$108$2_0$148              main
     00000400  A$lcc74000$572                     main
     00000401  A$lcc74000$573                     main
     00000404  A$lcc74000$576                     main
     00000406  A$lcc74000$577                     main
     00000407  A$lcc74000$578                     main
     00000409  A$lcc74000$579                     main
     0000040A  A$lcc74000$580                     main
     0000040C  A$lcc74000$581                     main
     0000040D  A$lcc74000$582                     main
     0000040F  A$lcc74000$584                     main
     00000410  A$lcc74000$585                     main
     00000411  A$lcc74000$586                     main
     00000412  A$lcc74000$587                     main
     00000413  A$lcc74000$588                     main
     00000415  A$lcc74000$589                     main
     00000416  A$lcc74000$590                     main
     00000417  A$lcc74000$591                     main
     00000418  A$lcc74000$592                     main
     00000419  A$lcc74000$593                     main
     0000041A  A$lcc74000$594                     main
     0000041B  A$lcc74000$595                     main
     0000041C  A$lcc74000$596                     main
     0000041F  A$lcc74000$597                     main
     00000420  A$lcc74000$598                     main
     00000422  A$lcc74000$599                     main
     00000423  A$lcc74000$600                     main
     00000425  A$lcc74000$601                     main
     00000426  A$lcc74000$602                     main
     00000427  A$lcc74000$603                     main
     00000428  A$lcc74000$604                     main
     00000429  A$lcc74000$605                     main
     0000042A  A$lcc74000$606                     main
     0000042B  A$lcc74000$607                     main
     0000042C  A$lcc74000$608                     main
     0000042F  A$lcc74000$609                     main
     00000431  A$lcc74000$610                     main
     00000432  A$lcc74000$611                     main
     00000433  A$lcc74000$612                     main
     00000434  A$lcc74000$613                     main
     00000435  A$lcc74000$614                     main
     00000436  A$lcc74000$615                     main
     00000437  A$lcc74000$616                     main
     00000438  A$lcc74000$617                     main
     0000043A  A$lcc74000$618                     main
     0000043B  A$lcc74000$619                     main
ASxxxx Linker V03.00 + NoICE + sdld,  page 13.
Hexadecimal  [32-Bits]

Area                                    Addr        Size        Decimal Bytes (Attributes)
--------------------------------        ----        ----        ------- ----- ------------
_CODE                               00000200    00001063 =        4195. bytes (REL,CON)

      Value  Global                              Global Defined In Module
      -----  --------------------------------   ------------------------
     0000043C  A$lcc74000$620                     main
     0000043D  A$lcc74000$621                     main
     0000043E  A$lcc74000$622                     main
     0000043F  A$lcc74000$626                     main
     0000043F  C$fixed.c$129$3_0$157              main
     00000441  A$lcc74000$627                     main
     00000442  A$lcc74000$628                     main
     00000443  A$lcc74000$629                     main
     00000444  A$lcc74000$630                     main
     00000446  A$lcc74000$631                     main
     00000447  A$lcc74000$632                     main
     00000448  A$lcc74000$633                     main
     00000449  A$lcc74000$635                     main
     0000044A  A$lcc74000$636                     main
     0000044B  A$lcc74000$637                     main
     0000044C  A$lcc74000$638                     main
     0000044D  A$lcc74000$639                     main
     0000044E  A$lcc74000$640                     main
     0000044F  A$lcc74000$641                     main
     00000450  A$lcc74000$642                     main
     00000451  A$lcc74000$643                     main
     00000452  A$lcc74000$645                     main
     00000454  A$lcc74000$646                     main
     00000455  A$lcc74000$647                     main
     00000456  A$lcc74000$648                     main
     00000457  A$lcc74000$649                     main
     00000458  A$lcc74000$650                     main
     00000459  A$lcc74000$651                     main
     0000045A  A$lcc74000$652                     main
     0000045B  A$lcc74000$653                     main
     0000045E  A$lcc74000$654                     main
     0000045F  A$lcc74000$655                     main
     00000461  A$lcc74000$656                     main
     00000462  A$lcc74000$657                     main
     00000464  A$lcc74000$658                     main
     00000465  A$lcc74000$659                     main
     00000466  A$lcc74000$660                     main
     00000467  A$lcc74000$661                     main
     00000468  A$lcc74000$662                     main
     00000469  A$lcc74000$663                     main
     0000046A  A$lcc74000$664                     main
     0000046B  A$lcc74000$665                     main
     0000046E  A$lcc74000$666                     main
     00000470  A$lcc74000$667                     main
     00000471  A$lcc74000$668                     main
     00000472  A$lcc74000$669                     main
     00000473  A$lcc74000$670                     main
     00000474  A$lcc74000$671                     main
     00000475  A$lcc74000$672                     main
     00000476  A$lcc74000$673                     main
     00000477  A$lcc74000$674                     main
ASxxxx Linker V03.00 + NoICE + sdld,  page 14.
Hexadecimal  [32-Bits]

Area                                    Addr        Size        Decimal Bytes (Attributes)
--------------------------------        ----        ----        ------- ----- ------------
_CODE                               00000200    00001063 =        4195. bytes (REL,CON)

      Value  Global                              Global Defined In Module
      -----  --------------------------------   ------------------------
     00000479  A$lcc74000$675                     main
     0000047A  A$lcc74000$676                     main
     0000047B  A$lcc74000$677                     main
     0000047C  A$lcc74000$678                     main
     0000047D  A$lcc74000$679                     main
     0000047E  A$lcc74000$683                     main
     0000047E  C$fixed.c$130$3_0$160              main
     00000480  A$lcc74000$684                     main
     00000481  A$lcc74000$685                     main
     00000482  A$lcc74000$686                     main
     00000483  A$lcc74000$687                     main
     00000485  A$lcc74000$688                     main
     00000486  A$lcc74000$689                     main
     00000487  A$lcc74000$690                     main
     00000488  A$lcc74000$691                     main
     00000489  A$lcc74000$692                     main
     0000048A  A$lcc74000$696                     main
     0000048A  C$fixed.c$131$3_0$147              main
     0000048C  A$lcc74000$697                     main
     0000048D  A$lcc74000$698                     main
     0000048E  A$lcc74000$699                     main
     0000048F  G$cordic_table$0_0$0               main
     0000048F  _cordic_table                      main
     000004BB  A$lcc74000$733                     main
     000004BB  C$GameObject.c$31$3_0$165          main
     000004BB  G$updateGameObject$0$0             main
     000004BB  _updateGameObject                  main
     000004BD  A$lcc74000$734                     main
     000004BF  A$lcc74000$735                     main
     000004C0  A$lcc74000$736                     main
     000004C1  A$lcc74000$737                     main
     000004C2  A$lcc74000$738                     main
     000004C4  A$lcc74000$739                     main
     000004C5  A$lcc74000$740                     main
     000004C6  A$lcc74000$742                     main
     000004C7  A$lcc74000$743                     main
     000004C8  A$lcc74000$744                     main
     000004C9  A$lcc74000$745                     main
     000004CA  A$lcc74000$746                     main
     000004CB  A$lcc74000$747                     main
     000004CE  A$lcc74000$748                     main
     000004CF  A$lcc74000$749                     main
     000004D0  A$lcc74000$750                     main
     000004D1  A$lcc74000$751                     main
     000004D3  A$lcc74000$752                     main
     000004D4  A$lcc74000$753                     main
     000004D5  A$lcc74000$754                     main
     000004D6  A$lcc74000$755                     main
     000004D8  A$lcc74000$756                     main
     000004D9  A$lcc74000$757                     main
     000004DA  A$lcc74000$758                     main
ASxxxx Linker V03.00 + NoICE + sdld,  page 15.
Hexadecimal  [32-Bits]

Area                                    Addr        Size        Decimal Bytes (Attributes)
--------------------------------        ----        ----        ------- ----- ------------
_CODE                               00000200    00001063 =        4195. bytes (REL,CON)

      Value  Global                              Global Defined In Module
      -----  --------------------------------   ------------------------
     000004DB  A$lcc74000$759                     main
     000004DC  A$lcc74000$760                     main
     000004DD  A$lcc74000$761                     main
     000004DE  A$lcc74000$762                     main
     000004DF  A$lcc74000$763                     main
     000004E0  A$lcc74000$764                     main
     000004E1  A$lcc74000$765                     main
     000004E2  A$lcc74000$766                     main
     000004E3  A$lcc74000$767                     main
     000004E4  A$lcc74000$768                     main
     000004E5  A$lcc74000$769                     main
     000004E6  A$lcc74000$770                     main
     000004E7  A$lcc74000$771                     main
     000004E8  A$lcc74000$772                     main
     000004E9  A$lcc74000$775                     main
     000004EA  A$lcc74000$776                     main
     000004EB  A$lcc74000$777                     main
     000004EC  A$lcc74000$781                     main
     000004ED  A$lcc74000$782                     main
     000004EE  A$lcc74000$783                     main
     000004EF  A$lcc74000$787                     main
     000004EF  C$GameObject.c$33$3_0$172          main
     000004F1  A$lcc74000$788                     main
     000004F2  A$lcc74000$789                     main
     000004F3  A$lcc74000$790                     main
     000004F4  A$lcc74000$791                     main
     000004F5  A$lcc74000$792                     main
     000004F6  A$lcc74000$793                     main
     000004F7  A$lcc74000$797                     main
     000004F7  C$GameObject.c$34$2_0$165          main
     000004F9  A$lcc74000$798                     main
     000004FA  A$lcc74000$799                     main
     000004FB  A$lcc74000$800                     main
     000004FC  A$lcc74000$801                     main
     000004FF  A$lcc74000$802                     main
     00000500  A$lcc74000$803                     main
     00000501  A$lcc74000$804                     main
     00000502  A$lcc74000$805                     main
     00000504  A$lcc74000$806                     main
     00000505  A$lcc74000$807                     main
     00000506  A$lcc74000$808                     main
     00000507  A$lcc74000$809                     main
     00000509  A$lcc74000$810                     main
     0000050A  A$lcc74000$811                     main
     0000050C  A$lcc74000$812                     main
     0000050D  A$lcc74000$813                     main
     0000050E  A$lcc74000$814                     main
     0000050F  A$lcc74000$815                     main
     00000510  A$lcc74000$816                     main
     00000511  A$lcc74000$817                     main
     00000512  A$lcc74000$818                     main
ASxxxx Linker V03.00 + NoICE + sdld,  page 16.
Hexadecimal  [32-Bits]

Area                                    Addr        Size        Decimal Bytes (Attributes)
--------------------------------        ----        ----        ------- ----- ------------
_CODE                               00000200    00001063 =        4195. bytes (REL,CON)

      Value  Global                              Global Defined In Module
      -----  --------------------------------   ------------------------
     00000513  A$lcc74000$819                     main
     00000514  A$lcc74000$820                     main
     00000516  A$lcc74000$821                     main
     00000517  A$lcc74000$822                     main
     00000518  A$lcc74000$823                     main
     00000519  A$lcc74000$824                     main
     0000051A  A$lcc74000$825                     main
     0000051B  A$lcc74000$828                     main
     0000051C  A$lcc74000$829                     main
     0000051D  A$lcc74000$830                     main
     0000051E  A$lcc74000$834                     main
     0000051F  A$lcc74000$835                     main
     00000520  A$lcc74000$836                     main
     00000521  A$lcc74000$840                     main
     00000521  C$GameObject.c$34$3_0$175          main
     00000523  A$lcc74000$841                     main
     00000524  A$lcc74000$842                     main
     00000525  A$lcc74000$843                     main
     00000526  A$lcc74000$844                     main
     00000527  A$lcc74000$845                     main
     00000528  A$lcc74000$846                     main
     00000529  A$lcc74000$850                     main
     00000529  C$GameObject.c$35$1_0$165          main
     0000052B  A$lcc74000$851                     main
     0000052C  A$lcc74000$852                     main
     0000052D  A$lcc74000$853                     main
     0000052E  A$lcc74000$854                     main
     00000531  A$lcc74000$855                     main
     00000532  A$lcc74000$856                     main
     00000533  A$lcc74000$857                     main
     00000534  A$lcc74000$858                     main
     00000535  A$lcc74000$859                     main
     00000537  A$lcc74000$860                     main
     00000538  A$lcc74000$861                     main
     00000539  A$lcc74000$862                     main
     0000053A  A$lcc74000$863                     main
     0000053D  A$lcc74000$864                     main
     0000053E  A$lcc74000$865                     main
     0000053F  A$lcc74000$866                     main
     00000540  A$lcc74000$867                     main
     00000542  A$lcc74000$868                     main
     00000543  A$lcc74000$869                     main
     00000544  A$lcc74000$870                     main
     00000545  A$lcc74000$871                     main
     00000547  A$lcc74000$872                     main
     00000548  A$lcc74000$873                     main
     00000549  A$lcc74000$874                     main
     0000054A  A$lcc74000$875                     main
     0000054B  A$lcc74000$876                     main
     0000054C  A$lcc74000$877                     main
     0000054D  A$lcc74000$878                     main
ASxxxx Linker V03.00 + NoICE + sdld,  page 17.
Hexadecimal  [32-Bits]

Area                                    Addr        Size        Decimal Bytes (Attributes)
--------------------------------        ----        ----        ------- ----- ------------
_CODE                               00000200    00001063 =        4195. bytes (REL,CON)

      Value  Global                              Global Defined In Module
      -----  --------------------------------   ------------------------
     0000054E  A$lcc74000$879                     main
     0000054F  A$lcc74000$880                     main
     00000550  A$lcc74000$881                     main
     00000551  A$lcc74000$882                     main
     00000552  A$lcc74000$883                     main
     00000553  A$lcc74000$884                     main
     00000554  A$lcc74000$887                     main
     00000555  A$lcc74000$888                     main
     00000556  A$lcc74000$889                     main
     00000557  A$lcc74000$893                     main
     00000558  A$lcc74000$894                     main
     00000559  A$lcc74000$895                     main
     0000055A  A$lcc74000$899                     main
     0000055A  C$GameObject.c$35$3_0$178          main
     0000055B  A$lcc74000$900                     main
     0000055C  A$lcc74000$901                     main
     0000055D  A$lcc74000$902                     main
     0000055E  A$lcc74000$903                     main
     0000055F  A$lcc74000$907                     main
     0000055F  C$GameObject.c$36$1_0$165          main
     00000561  A$lcc74000$908                     main
     00000562  A$lcc74000$909                     main
     00000563  A$lcc74000$910                     main
     00000564  A$lcc74000$911                     main
     00000565  A$lcc74000$912                     main
     00000566  A$lcc74000$913                     main
     00000568  A$lcc74000$914                     main
     00000569  A$lcc74000$915                     main
     0000056A  A$lcc74000$916                     main
     0000056B  A$lcc74000$917                     main
     0000056C  A$lcc74000$918                     main
     0000056E  A$lcc74000$919                     main
     0000056F  A$lcc74000$920                     main
     00000570  A$lcc74000$921                     main
     00000571  A$lcc74000$922                     main
     00000572  A$lcc74000$923                     main
     00000573  A$lcc74000$924                     main
     00000574  A$lcc74000$925                     main
     00000575  A$lcc74000$926                     main
     00000577  A$lcc74000$927                     main
     00000578  A$lcc74000$928                     main
     00000579  A$lcc74000$929                     main
     0000057A  A$lcc74000$931                     main
     0000057B  A$lcc74000$932                     main
     0000057C  A$lcc74000$933                     main
     0000057D  A$lcc74000$934                     main
     0000057E  A$lcc74000$935                     main
     00000580  A$lcc74000$936                     main
     00000581  A$lcc74000$937                     main
     00000582  A$lcc74000$938                     main
     00000583  A$lcc74000$939                     main
ASxxxx Linker V03.00 + NoICE + sdld,  page 18.
Hexadecimal  [32-Bits]

Area                                    Addr        Size        Decimal Bytes (Attributes)
--------------------------------        ----        ----        ------- ----- ------------
_CODE                               00000200    00001063 =        4195. bytes (REL,CON)

      Value  Global                              Global Defined In Module
      -----  --------------------------------   ------------------------
     00000584  A$lcc74000$940                     main
     00000585  A$lcc74000$941                     main
     00000586  A$lcc74000$945                     main
     00000586  C$GameObject.c$36$3_0$181          main
     00000587  A$lcc74000$946                     main
     00000588  A$lcc74000$947                     main
     00000589  A$lcc74000$948                     main
     0000058A  A$lcc74000$949                     main
     0000058B  A$lcc74000$953                     main
     0000058D  A$lcc74000$954                     main
     0000058E  A$lcc74000$955                     main
     0000058F  A$lcc74000$956                     main
     00000590  A$lcc74000$957                     main
     00000593  A$lcc74000$958                     main
     00000594  A$lcc74000$959                     main
     00000595  A$lcc74000$960                     main
     00000596  A$lcc74000$961                     main
     00000598  A$lcc74000$962                     main
     00000599  A$lcc74000$963                     main
     0000059A  A$lcc74000$964                     main
     0000059B  A$lcc74000$965                     main
     0000059D  A$lcc74000$966                     main
     0000059E  A$lcc74000$967                     main
     0000059F  A$lcc74000$968                     main
     000005A0  A$lcc74000$969                     main
     000005A1  A$lcc74000$970                     main
     000005A2  A$lcc74000$971                     main
     000005A4  A$lcc74000$972                     main
     000005A5  A$lcc74000$973                     main
     000005A7  A$lcc74000$974                     main
     000005A8  A$lcc74000$975                     main
     000005A9  A$lcc74000$976                     main
     000005AA  A$lcc74000$977                     main
     000005AD  A$lcc74000$978                     main
     000005AE  A$lcc74000$979                     main
     000005AF  A$lcc74000$980                     main
     000005B0  A$lcc74000$984                     main
     000005B0  C$GameObject.c$40$2_0$165          main
     000005B2  A$lcc74000$985                     main
     000005B3  A$lcc74000$986                     main
     000005B4  A$lcc74000$987                     main
     000005B5  A$lcc74000$988                     main
     000005B6  A$lcc74000$989                     main
     000005B7  A$lcc74000$990                     main
     000005B8  A$lcc74000$991                     main
     000005B9  A$lcc74000$992                     main
     000005BA  A$lcc74000$993                     main
     000005BB  A$lcc74000$994                     main
     000005BC  A$lcc74000$995                     main
     000005BF  A$lcc74000$996                     main
     000005C0  A$lcc74000$997                     main
ASxxxx Linker V03.00 + NoICE + sdld,  page 19.
Hexadecimal  [32-Bits]

Area                                    Addr        Size        Decimal Bytes (Attributes)
--------------------------------        ----        ----        ------- ----- ------------
_CODE                               00000200    00001063 =        4195. bytes (REL,CON)

      Value  Global                              Global Defined In Module
      -----  --------------------------------   ------------------------
     000005C1  A$lcc74000$998                     main
     000005C2  A$lcc74000$999                     main
     000005C3  A$lcc74000$1000                    main
     000005C5  A$lcc74000$1001                    main
     000005C6  A$lcc74000$1002                    main
     000005C7  A$lcc74000$1003                    main
     000005C8  A$lcc74000$1004                    main
     000005CA  A$lcc74000$1005                    main
     000005CB  A$lcc74000$1009                    main
     000005CB  C$GameObject.c$38$1_0$165          main
     000005CD  A$lcc74000$1010                    main
     000005CE  A$lcc74000$1011                    main
     000005CF  A$lcc74000$1012                    main
     000005D1  A$lcc74000$1013                    main
     000005D2  A$lcc74000$1014                    main
     000005D3  A$lcc74000$1015                    main
     000005D5  A$lcc74000$1017                    main
     000005D6  A$lcc74000$1018                    main
     000005D7  A$lcc74000$1019                    main
     000005D8  A$lcc74000$1022                    main
     000005D9  A$lcc74000$1023                    main
     000005DA  A$lcc74000$1026                    main
     000005DC  A$lcc74000$1027                    main
     000005DD  A$lcc74000$1028                    main
     000005DE  A$lcc74000$1029                    main
     000005DF  A$lcc74000$1030                    main
     000005E0  A$lcc74000$1031                    main
     000005E1  A$lcc74000$1032                    main
     000005E3  A$lcc74000$1033                    main
     000005E4  A$lcc74000$1034                    main
     000005E5  A$lcc74000$1035                    main
     000005E7  A$lcc74000$1036                    main
     000005E8  A$lcc74000$1037                    main
     000005EA  A$lcc74000$1038                    main
     000005EB  A$lcc74000$1039                    main
     000005EC  A$lcc74000$1040                    main
     000005ED  A$lcc74000$1041                    main
     000005EE  A$lcc74000$1044                    main
     000005EF  A$lcc74000$1045                    main
     000005F0  A$lcc74000$1048                    main
     000005F1  A$lcc74000$1049                    main
     000005F3  A$lcc74000$1050                    main
     000005F4  A$lcc74000$1051                    main
     000005F5  A$lcc74000$1052                    main
     000005F6  A$lcc74000$1053                    main
     000005F7  A$lcc74000$1056                    main
     000005F8  A$lcc74000$1057                    main
     000005F9  A$lcc74000$1058                    main
     000005FA  A$lcc74000$1059                    main
     000005FB  A$lcc74000$1060                    main
     000005FC  A$lcc74000$1061                    main
ASxxxx Linker V03.00 + NoICE + sdld,  page 20.
Hexadecimal  [32-Bits]

Area                                    Addr        Size        Decimal Bytes (Attributes)
--------------------------------        ----        ----        ------- ----- ------------
_CODE                               00000200    00001063 =        4195. bytes (REL,CON)

      Value  Global                              Global Defined In Module
      -----  --------------------------------   ------------------------
     000005FE  A$lcc74000$1062                    main
     000005FF  A$lcc74000$1063                    main
     00000601  A$lcc74000$1064                    main
     00000602  A$lcc74000$1065                    main
     00000603  A$lcc74000$1066                    main
     00000604  A$lcc74000$1067                    main
     00000605  A$lcc74000$1068                    main
     00000606  A$lcc74000$1070                    main
     00000607  A$lcc74000$1071                    main
     00000609  A$lcc74000$1072                    main
     0000060A  A$lcc74000$1073                    main
     0000060B  A$lcc74000$1074                    main
     0000060C  A$lcc74000$1075                    main
     0000060D  A$lcc74000$1076                    main
     00000610  A$lcc74000$1077                    main
     00000611  A$lcc74000$1079                    main
     00000612  A$lcc74000$1080                    main
     00000613  A$lcc74000$1081                    main
     00000614  A$lcc74000$1085                    main
     00000614  C$GameObject.c$41$2_0$166          main
     00000617  A$lcc74000$1090                    main
     00000617  C$GameObject.c$43$2_0$165          main
     00000619  A$lcc74000$1091                    main
     0000061A  A$lcc74000$1092                    main
     0000061B  A$lcc74000$1093                    main
     0000061C  A$lcc74000$1094                    main
     0000061E  A$lcc74000$1095                    main
     0000061F  A$lcc74000$1096                    main
     00000621  A$lcc74000$1097                    main
     00000622  A$lcc74000$1098                    main
     00000624  A$lcc74000$1099                    main
     00000625  A$lcc74000$1100                    main
     00000627  A$lcc74000$1101                    main
     00000628  A$lcc74000$1102                    main
     00000629  A$lcc74000$1103                    main
     0000062A  A$lcc74000$1104                    main
     0000062B  A$lcc74000$1105                    main
     0000062E  A$lcc74000$1107                    main
     00000630  A$lcc74000$1108                    main
     00000631  A$lcc74000$1109                    main
     00000632  A$lcc74000$1110                    main
     00000633  A$lcc74000$1111                    main
     00000634  A$lcc74000$1112                    main
     00000635  A$lcc74000$1115                    main
     00000636  A$lcc74000$1116                    main
     00000637  A$lcc74000$1117                    main
     00000638  A$lcc74000$1120                    main
     00000639  A$lcc74000$1121                    main
     0000063A  A$lcc74000$1122                    main
     0000063B  A$lcc74000$1123                    main
     0000063C  A$lcc74000$1124                    main
ASxxxx Linker V03.00 + NoICE + sdld,  page 21.
Hexadecimal  [32-Bits]

Area                                    Addr        Size        Decimal Bytes (Attributes)
--------------------------------        ----        ----        ------- ----- ------------
_CODE                               00000200    00001063 =        4195. bytes (REL,CON)

      Value  Global                              Global Defined In Module
      -----  --------------------------------   ------------------------
     0000063D  A$lcc74000$1125                    main
     0000063E  A$lcc74000$1126                    main
     00000640  A$lcc74000$1127                    main
     00000642  A$lcc74000$1128                    main
     00000644  A$lcc74000$1129                    main
     00000646  A$lcc74000$1130                    main
     00000647  A$lcc74000$1131                    main
     00000649  A$lcc74000$1133                    main
     0000064B  A$lcc74000$1134                    main
     0000064D  A$lcc74000$1135                    main
     0000064E  A$lcc74000$1137                    main
     00000651  A$lcc74000$1141                    main
     00000651  C$GameObject.c$45$2_0$165          main
     00000652  A$lcc74000$1142                    main
     00000654  A$lcc74000$1143                    main
     00000655  A$lcc74000$1144                    main
     00000656  A$lcc74000$1146                    main
     00000658  A$lcc74000$1147                    main
     00000659  A$lcc74000$1148                    main
     0000065A  A$lcc74000$1149                    main
     0000065B  A$lcc74000$1150                    main
     0000065C  A$lcc74000$1151                    main
     0000065E  A$lcc74000$1152                    main
     0000065F  A$lcc74000$1153                    main
     00000660  A$lcc74000$1154                    main
     00000662  A$lcc74000$1155                    main
     00000663  A$lcc74000$1156                    main
     00000664  A$lcc74000$1157                    main
     00000665  A$lcc74000$1158                    main
     00000666  A$lcc74000$1159                    main
     00000668  A$lcc74000$1160                    main
     00000669  A$lcc74000$1161                    main
     0000066A  A$lcc74000$1162                    main
     0000066C  A$lcc74000$1163                    main
     0000066D  A$lcc74000$1164                    main
     0000066E  A$lcc74000$1165                    main
     0000066F  A$lcc74000$1166                    main
     00000670  A$lcc74000$1167                    main
     00000671  A$lcc74000$1168                    main
     00000672  A$lcc74000$1169                    main
     00000673  A$lcc74000$1170                    main
     00000674  A$lcc74000$1171                    main
     00000676  A$lcc74000$1172                    main
     00000678  A$lcc74000$1173                    main
     0000067A  A$lcc74000$1174                    main
     0000067C  A$lcc74000$1175                    main
     0000067D  A$lcc74000$1176                    main
     0000067F  A$lcc74000$1178                    main
     00000681  A$lcc74000$1179                    main
     00000683  A$lcc74000$1180                    main
     00000684  A$lcc74000$1182                    main
ASxxxx Linker V03.00 + NoICE + sdld,  page 22.
Hexadecimal  [32-Bits]

Area                                    Addr        Size        Decimal Bytes (Attributes)
--------------------------------        ----        ----        ------- ----- ------------
_CODE                               00000200    00001063 =        4195. bytes (REL,CON)

      Value  Global                              Global Defined In Module
      -----  --------------------------------   ------------------------
     00000687  A$lcc74000$1184                    main
     00000688  A$lcc74000$1185                    main
     00000689  A$lcc74000$1186                    main
     0000068A  A$lcc74000$1189                    main
     0000068B  A$lcc74000$1190                    main
     0000068C  A$lcc74000$1191                    main
     0000068D  A$lcc74000$1192                    main
     0000068F  A$lcc74000$1193                    main
     00000690  A$lcc74000$1194                    main
     00000691  A$lcc74000$1195                    main
     00000692  A$lcc74000$1196                    main
     00000693  A$lcc74000$1197                    main
     00000694  A$lcc74000$1198                    main
     00000695  A$lcc74000$1199                    main
     00000697  A$lcc74000$1200                    main
     00000698  A$lcc74000$1201                    main
     0000069A  A$lcc74000$1202                    main
     0000069B  A$lcc74000$1203                    main
     0000069C  A$lcc74000$1204                    main
     0000069D  A$lcc74000$1205                    main
     0000069E  A$lcc74000$1208                    main
     0000069F  A$lcc74000$1209                    main
     000006A0  A$lcc74000$1210                    main
     000006A1  A$lcc74000$1211                    main
     000006A3  A$lcc74000$1212                    main
     000006A4  A$lcc74000$1213                    main
     000006A5  A$lcc74000$1214                    main
     000006A7  A$lcc74000$1215                    main
     000006A9  A$lcc74000$1216                    main
     000006AA  A$lcc74000$1217                    main
     000006AC  A$lcc74000$1218                    main
     000006AD  A$lcc74000$1219                    main
     000006AE  A$lcc74000$1220                    main
     000006AF  A$lcc74000$1221                    main
     000006B0  A$lcc74000$1224                    main
     000006B1  A$lcc74000$1225                    main
     000006B2  A$lcc74000$1226                    main
     000006B3  A$lcc74000$1227                    main
     000006B5  A$lcc74000$1228                    main
     000006B6  A$lcc74000$1229                    main
     000006B8  A$lcc74000$1230                    main
     000006B9  A$lcc74000$1231                    main
     000006BA  A$lcc74000$1232                    main
     000006BB  A$lcc74000$1233                    main
     000006BC  A$lcc74000$1234                    main
     000006BD  A$lcc74000$1235                    main
     000006BE  A$lcc74000$1236                    main
     000006BF  A$lcc74000$1237                    main
     000006C0  A$lcc74000$1238                    main
     000006C1  A$lcc74000$1239                    main
     000006C2  A$lcc74000$1240                    main
ASxxxx Linker V03.00 + NoICE + sdld,  page 23.
Hexadecimal  [32-Bits]

Area                                    Addr        Size        Decimal Bytes (Attributes)
--------------------------------        ----        ----        ------- ----- ------------
_CODE                               00000200    00001063 =        4195. bytes (REL,CON)

      Value  Global                              Global Defined In Module
      -----  --------------------------------   ------------------------
     000006C3  A$lcc74000$1241                    main
     000006C4  A$lcc74000$1244                    main
     000006C5  A$lcc74000$1245                    main
     000006C6  A$lcc74000$1246                    main
     000006C7  A$lcc74000$1247                    main
     000006C9  A$lcc74000$1248                    main
     000006CA  A$lcc74000$1249                    main
     000006CB  A$lcc74000$1250                    main
     000006CD  A$lcc74000$1251                    main
     000006CE  A$lcc74000$1252                    main
     000006D0  A$lcc74000$1253                    main
     000006D1  A$lcc74000$1254                    main
     000006D2  A$lcc74000$1255                    main
     000006D3  A$lcc74000$1256                    main
     000006D4  A$lcc74000$1257                    main
     000006D6  A$lcc74000$1258                    main
     000006D7  A$lcc74000$1259                    main
     000006D8  A$lcc74000$1260                    main
     000006DA  A$lcc74000$1261                    main
     000006DB  A$lcc74000$1262                    main
     000006DC  A$lcc74000$1263                    main
     000006DD  A$lcc74000$1264                    main
     000006E0  A$lcc74000$1265                    main
     000006E1  A$lcc74000$1266                    main
     000006E2  A$lcc74000$1267                    main
     000006E4  A$lcc74000$1268                    main
     000006E5  A$lcc74000$1269                    main
     000006E6  A$lcc74000$1270                    main
     000006E7  A$lcc74000$1271                    main
     000006E8  A$lcc74000$1272                    main
     000006E9  A$lcc74000$1274                    main
     000006EB  A$lcc74000$1277                    main
     000006EC  A$lcc74000$1278                    main
     000006ED  A$lcc74000$1279                    main
     000006EE  A$lcc74000$1280                    main
     000006F1  A$lcc74000$1281                    main
     000006F2  A$lcc74000$1282                    main
     000006F3  A$lcc74000$1283                    main
     000006F4  A$lcc74000$1285                    main
     000006F6  A$lcc74000$1286                    main
     000006F7  A$lcc74000$1287                    main
     000006F8  A$lcc74000$1288                    main
     000006F9  A$lcc74000$1289                    main
     000006FA  A$lcc74000$1290                    main
     000006FB  A$lcc74000$1291                    main
     000006FC  A$lcc74000$1295                    main
     000006FC  C$GameObject.c$45$4_0$169          main
     000006FE  A$lcc74000$1296                    main
     000006FF  A$lcc74000$1297                    main
     00000702  A$lcc74000$1298                    main
     00000703  A$lcc74000$1299                    main
ASxxxx Linker V03.00 + NoICE + sdld,  page 24.
Hexadecimal  [32-Bits]

Area                                    Addr        Size        Decimal Bytes (Attributes)
--------------------------------        ----        ----        ------- ----- ------------
_CODE                               00000200    00001063 =        4195. bytes (REL,CON)

      Value  Global                              Global Defined In Module
      -----  --------------------------------   ------------------------
     00000704  A$lcc74000$1300                    main
     00000707  A$lcc74000$1305                    main
     00000707  C$GameObject.c$43$2_0$167          main
     00000708  A$lcc74000$1306                    main
     0000070B  A$lcc74000$1311                    main
     0000070D  A$lcc74000$1316                    main
     0000070D  C$GameObject.c$50$2_0$165          main
     0000070D  XG$updateGameObject$0$0            main
     0000070E  A$lcc74000$1326                    main
     0000070E  C$GameObject.c$58$2_0$198          main
     0000070E  G$applyDragToGameObject$0$0        main
     0000070E  _applyDragToGameObject             main
     00000710  A$lcc74000$1327                    main
     00000712  A$lcc74000$1328                    main
     00000713  A$lcc74000$1329                    main
     00000714  A$lcc74000$1330                    main
     00000715  A$lcc74000$1331                    main
     00000716  A$lcc74000$1332                    main
     00000717  A$lcc74000$1336                    main
     00000717  C$GameObject.c$60$1_0$198          main
     00000718  A$lcc74000$1337                    main
     00000719  A$lcc74000$1338                    main
     0000071A  A$lcc74000$1339                    main
     0000071B  A$lcc74000$1340                    main
     0000071E  A$lcc74000$1341                    main
     0000071F  A$lcc74000$1342                    main
     00000720  A$lcc74000$1343                    main
     00000721  A$lcc74000$1344                    main
     00000722  A$lcc74000$1345                    main
     00000723  A$lcc74000$1346                    main
     00000724  A$lcc74000$1347                    main
     00000725  A$lcc74000$1348                    main
     00000726  A$lcc74000$1349                    main
     00000727  A$lcc74000$1350                    main
     00000728  A$lcc74000$1351                    main
     00000729  A$lcc74000$1352                    main
     0000072A  A$lcc74000$1353                    main
     0000072C  A$lcc74000$1357                    main
     0000072C  C$GameObject.c$62$2_0$199          main
     0000072E  A$lcc74000$1358                    main
     0000072F  A$lcc74000$1359                    main
     00000730  A$lcc74000$1360                    main
     00000731  A$lcc74000$1361                    main
     00000732  A$lcc74000$1362                    main
     00000733  A$lcc74000$1363                    main
     00000734  A$lcc74000$1364                    main
     00000736  A$lcc74000$1366                    main
     00000738  A$lcc74000$1367                    main
     0000073A  A$lcc74000$1369                    main
     0000073B  A$lcc74000$1370                    main
     0000073D  A$lcc74000$1374                    main
ASxxxx Linker V03.00 + NoICE + sdld,  page 25.
Hexadecimal  [32-Bits]

Area                                    Addr        Size        Decimal Bytes (Attributes)
--------------------------------        ----        ----        ------- ----- ------------
_CODE                               00000200    00001063 =        4195. bytes (REL,CON)

      Value  Global                              Global Defined In Module
      -----  --------------------------------   ------------------------
     0000073D  C$GameObject.c$63$2_0$199          main
     0000073E  A$lcc74000$1375                    main
     0000073F  A$lcc74000$1376                    main
     00000741  A$lcc74000$1377                    main
     00000744  A$lcc74000$1380                    main
     00000745  A$lcc74000$1381                    main
     00000746  A$lcc74000$1382                    main
     00000747  A$lcc74000$1383                    main
     00000748  A$lcc74000$1384                    main
     00000749  A$lcc74000$1385                    main
     0000074A  A$lcc74000$1389                    main
     0000074A  C$GameObject.c$63$4_0$202          main
     0000074B  A$lcc74000$1390                    main
     0000074C  A$lcc74000$1391                    main
     0000074D  A$lcc74000$1392                    main
     0000074E  A$lcc74000$1393                    main
     0000074F  A$lcc74000$1398                    main
     0000074F  C$GameObject.c$65$1_0$198          main
     00000751  A$lcc74000$1399                    main
     00000752  A$lcc74000$1400                    main
     00000753  A$lcc74000$1401                    main
     00000754  A$lcc74000$1402                    main
     00000757  A$lcc74000$1403                    main
     00000758  A$lcc74000$1404                    main
     00000759  A$lcc74000$1405                    main
     0000075A  A$lcc74000$1406                    main
     0000075B  A$lcc74000$1407                    main
     0000075C  A$lcc74000$1408                    main
     0000075D  A$lcc74000$1409                    main
     0000075E  A$lcc74000$1410                    main
     0000075F  A$lcc74000$1411                    main
     00000760  A$lcc74000$1412                    main
     00000761  A$lcc74000$1413                    main
     00000762  A$lcc74000$1414                    main
     00000763  A$lcc74000$1415                    main
     00000765  A$lcc74000$1419                    main
     00000765  C$GameObject.c$67$2_0$200          main
     00000767  A$lcc74000$1420                    main
     00000768  A$lcc74000$1421                    main
     00000769  A$lcc74000$1422                    main
     0000076A  A$lcc74000$1423                    main
     0000076B  A$lcc74000$1424                    main
     0000076C  A$lcc74000$1425                    main
     0000076D  A$lcc74000$1426                    main
     0000076F  A$lcc74000$1428                    main
     00000771  A$lcc74000$1429                    main
     00000773  A$lcc74000$1431                    main
     00000774  A$lcc74000$1432                    main
     00000776  A$lcc74000$1436                    main
     00000776  C$GameObject.c$68$2_0$200          main
     00000777  A$lcc74000$1437                    main
ASxxxx Linker V03.00 + NoICE + sdld,  page 26.
Hexadecimal  [32-Bits]

Area                                    Addr        Size        Decimal Bytes (Attributes)
--------------------------------        ----        ----        ------- ----- ------------
_CODE                               00000200    00001063 =        4195. bytes (REL,CON)

      Value  Global                              Global Defined In Module
      -----  --------------------------------   ------------------------
     00000778  A$lcc74000$1438                    main
     0000077A  A$lcc74000$1439                    main
     0000077D  A$lcc74000$1441                    main
     0000077E  A$lcc74000$1443                    main
     0000077F  A$lcc74000$1444                    main
     00000780  A$lcc74000$1445                    main
     00000781  A$lcc74000$1446                    main
     00000782  A$lcc74000$1447                    main
     00000783  A$lcc74000$1451                    main
     00000783  C$GameObject.c$68$4_0$205          main
     00000784  A$lcc74000$1452                    main
     00000785  A$lcc74000$1453                    main
     00000786  A$lcc74000$1454                    main
     00000787  A$lcc74000$1455                    main
     00000788  A$lcc74000$1460                    main
     0000078A  A$lcc74000$1465                    main
     0000078A  C$GameObject.c$70$1_0$198          main
     0000078A  XG$applyDragToGameObject$0$0       main
     0000078B  A$lcc74000$1475                    main
     0000078B  C$GameObject.c$72$1_0$208          main
     0000078B  G$setRotatedSprite$0$0             main
     0000078B  _setRotatedSprite                  main
     0000078D  A$lcc74000$1476                    main
     0000078F  A$lcc74000$1477                    main
     00000790  A$lcc74000$1478                    main
     00000791  A$lcc74000$1482                    main
     00000791  C$GameObject.c$74$1_0$208          main
     00000793  A$lcc74000$1483                    main
     00000794  A$lcc74000$1484                    main
     00000795  A$lcc74000$1485                    main
     00000797  A$lcc74000$1486                    main
     00000799  A$lcc74000$1487                    main
     0000079A  A$lcc74000$1488                    main
     0000079B  A$lcc74000$1492                    main
     0000079B  C$GameObject.c$76$2_0$209          main
     0000079E  A$lcc74000$1495                    main
     000007A0  A$lcc74000$1496                    main
     000007A1  A$lcc74000$1497                    main
     000007A3  A$lcc74000$1498                    main
     000007A4  A$lcc74000$1499                    main
     000007A6  A$lcc74000$1500                    main
     000007A7  A$lcc74000$1501                    main
     000007A9  A$lcc74000$1502                    main
     000007AA  A$lcc74000$1503                    main
     000007AB  A$lcc74000$1504                    main
     000007AD  A$lcc74000$1505                    main
     000007AE  A$lcc74000$1506                    main
     000007B0  A$lcc74000$1507                    main
     000007B1  A$lcc74000$1508                    main
     000007B3  A$lcc74000$1509                    main
     000007B4  A$lcc74000$1510                    main
ASxxxx Linker V03.00 + NoICE + sdld,  page 27.
Hexadecimal  [32-Bits]

Area                                    Addr        Size        Decimal Bytes (Attributes)
--------------------------------        ----        ----        ------- ----- ------------
_CODE                               00000200    00001063 =        4195. bytes (REL,CON)

      Value  Global                              Global Defined In Module
      -----  --------------------------------   ------------------------
     000007B6  A$lcc74000$1511                    main
     000007B8  A$lcc74000$1512                    main
     000007BA  A$lcc74000$1513                    main
     000007BB  A$lcc74000$1514                    main
     000007BD  A$lcc74000$1515                    main
     000007BE  A$lcc74000$1516                    main
     000007C0  A$lcc74000$1517                    main
     000007C1  A$lcc74000$1518                    main
     000007C3  A$lcc74000$1519                    main
     000007C4  A$lcc74000$1520                    main
     000007C6  A$lcc74000$1522                    main
     000007C9  A$lcc74000$1523                    main
     000007CB  A$lcc74000$1524                    main
     000007CC  A$lcc74000$1525                    main
     000007CD  A$lcc74000$1526                    main
     000007CE  A$lcc74000$1527                    main
     000007CF  A$lcc74000$1528                    main
     000007D0  A$lcc74000$1529                    main
     000007D1  A$lcc74000$1530                    main
     000007D2  A$lcc74000$1531                    main
     000007D3  A$lcc74000$1532                    main
     000007D5  A$lcc74000$1533                    main
     000007D6  A$lcc74000$1534                    main
     000007D7  A$lcc74000$1535                    main
     000007D8  A$lcc74000$1536                    main
     000007DA  A$lcc74000$1537                    main
     000007DB  A$lcc74000$1538                    main
     000007DD  A$lcc74000$1539                    main
     000007DE  A$lcc74000$1540                    main
     000007E0  A$lcc74000$1541                    main
     000007E1  A$lcc74000$1543                    main
     000007E3  A$lcc74000$1544                    main
     000007E4  A$lcc74000$1545                    main
     000007E6  A$lcc74000$1546                    main
     000007E7  A$lcc74000$1547                    main
     000007E9  A$lcc74000$1548                    main
     000007EA  A$lcc74000$1549                    main
     000007EC  A$lcc74000$1550                    main
     000007ED  A$lcc74000$1551                    main
     000007EE  A$lcc74000$1552                    main
     000007F0  A$lcc74000$1553                    main
     000007F1  A$lcc74000$1554                    main
     000007F3  A$lcc74000$1555                    main
     000007F4  A$lcc74000$1556                    main
     000007F6  A$lcc74000$1557                    main
     000007F7  A$lcc74000$1558                    main
     000007F9  A$lcc74000$1559                    main
     000007FB  A$lcc74000$1560                    main
     000007FD  A$lcc74000$1561                    main
     000007FE  A$lcc74000$1562                    main
     000007FF  A$lcc74000$1563                    main
ASxxxx Linker V03.00 + NoICE + sdld,  page 28.
Hexadecimal  [32-Bits]

Area                                    Addr        Size        Decimal Bytes (Attributes)
--------------------------------        ----        ----        ------- ----- ------------
_CODE                               00000200    00001063 =        4195. bytes (REL,CON)

      Value  Global                              Global Defined In Module
      -----  --------------------------------   ------------------------
     00000800  A$lcc74000$1564                    main
     00000802  A$lcc74000$1566                    main
     00000805  A$lcc74000$1567                    main
     00000807  A$lcc74000$1568                    main
     00000808  A$lcc74000$1569                    main
     00000809  A$lcc74000$1570                    main
     0000080A  A$lcc74000$1571                    main
     0000080B  A$lcc74000$1572                    main
     0000080C  A$lcc74000$1573                    main
     0000080D  A$lcc74000$1574                    main
     0000080E  A$lcc74000$1575                    main
     0000080F  A$lcc74000$1576                    main
     00000811  A$lcc74000$1577                    main
     00000812  A$lcc74000$1578                    main
     00000813  A$lcc74000$1579                    main
     00000814  A$lcc74000$1580                    main
     00000815  A$lcc74000$1581                    main
     00000816  A$lcc74000$1583                    main
     00000818  A$lcc74000$1584                    main
     00000819  A$lcc74000$1585                    main
     0000081A  A$lcc74000$1586                    main
     0000081B  A$lcc74000$1587                    main
     0000081C  A$lcc74000$1588                    main
     0000081D  A$lcc74000$1589                    main
     0000081E  A$lcc74000$1590                    main
     00000820  A$lcc74000$1591                    main
     00000822  A$lcc74000$1592                    main
     00000824  A$lcc74000$1593                    main
     00000826  A$lcc74000$1594                    main
     00000827  A$lcc74000$1595                    main
     00000829  A$lcc74000$1597                    main
     0000082B  A$lcc74000$1598                    main
     0000082D  A$lcc74000$1599                    main
     0000082E  A$lcc74000$1601                    main
     00000830  A$lcc74000$1602                    main
     00000831  A$lcc74000$1603                    main
     00000833  A$lcc74000$1604                    main
     00000834  A$lcc74000$1606                    main
     00000835  A$lcc74000$1607                    main
     00000836  A$lcc74000$1608                    main
     00000838  A$lcc74000$1609                    main
     00000839  A$lcc74000$1610                    main
     0000083A  A$lcc74000$1611                    main
     0000083B  A$lcc74000$1612                    main
     0000083C  A$lcc74000$1613                    main
     0000083D  A$lcc74000$1614                    main
     0000083F  A$lcc74000$1616                    main
     00000841  A$lcc74000$1617                    main
     00000842  A$lcc74000$1618                    main
     00000843  A$lcc74000$1619                    main
     00000844  A$lcc74000$1624                    main
ASxxxx Linker V03.00 + NoICE + sdld,  page 29.
Hexadecimal  [32-Bits]

Area                                    Addr        Size        Decimal Bytes (Attributes)
--------------------------------        ----        ----        ------- ----- ------------
_CODE                               00000200    00001063 =        4195. bytes (REL,CON)

      Value  Global                              Global Defined In Module
      -----  --------------------------------   ------------------------
     00000845  A$lcc74000$1627                    main
     00000847  A$lcc74000$1629                    main
     00000849  A$lcc74000$1631                    main
     0000084A  A$lcc74000$1632                    main
     0000084B  A$lcc74000$1633                    main
     0000084C  A$lcc74000$1634                    main
     0000084D  A$lcc74000$1635                    main
     0000084E  A$lcc74000$1636                    main
     0000084F  A$lcc74000$1639                    main
     00000851  A$lcc74000$1640                    main
     00000853  A$lcc74000$1641                    main
     00000855  A$lcc74000$1642                    main
     00000856  A$lcc74000$1643                    main
     00000857  A$lcc74000$1644                    main
     00000858  A$lcc74000$1645                    main
     0000085A  A$lcc74000$1646                    main
     0000085B  A$lcc74000$1647                    main
     0000085C  A$lcc74000$1648                    main
     0000085E  A$lcc74000$1649                    main
     00000860  A$lcc74000$1650                    main
     00000861  A$lcc74000$1651                    main
     00000863  A$lcc74000$1652                    main
     00000864  A$lcc74000$1653                    main
     00000865  A$lcc74000$1654                    main
     00000866  A$lcc74000$1655                    main
     00000868  A$lcc74000$1656                    main
     00000869  A$lcc74000$1658                    main
     0000086B  A$lcc74000$1659                    main
     0000086C  A$lcc74000$1660                    main
     0000086E  A$lcc74000$1661                    main
     0000086F  A$lcc74000$1662                    main
     00000871  A$lcc74000$1663                    main
     00000872  A$lcc74000$1664                    main
     00000874  A$lcc74000$1666                    main
     00000875  A$lcc74000$1667                    main
     00000876  A$lcc74000$1668                    main
     00000878  A$lcc74000$1669                    main
     0000087A  A$lcc74000$1671                    main
     0000087B  A$lcc74000$1672                    main
     0000087C  A$lcc74000$1673                    main
     0000087E  A$lcc74000$1674                    main
     0000087F  A$lcc74000$1675                    main
     00000880  A$lcc74000$1676                    main
     00000881  A$lcc74000$1677                    main
     00000883  A$lcc74000$1678                    main
     00000884  A$lcc74000$1679                    main
     00000886  A$lcc74000$1682                    main
     00000889  A$lcc74000$1683                    main
     0000088B  A$lcc74000$1684                    main
     0000088C  A$lcc74000$1685                    main
     0000088D  A$lcc74000$1686                    main
ASxxxx Linker V03.00 + NoICE + sdld,  page 30.
Hexadecimal  [32-Bits]

Area                                    Addr        Size        Decimal Bytes (Attributes)
--------------------------------        ----        ----        ------- ----- ------------
_CODE                               00000200    00001063 =        4195. bytes (REL,CON)

      Value  Global                              Global Defined In Module
      -----  --------------------------------   ------------------------
     0000088E  A$lcc74000$1687                    main
     0000088F  A$lcc74000$1688                    main
     00000890  A$lcc74000$1689                    main
     00000891  A$lcc74000$1690                    main
     00000892  A$lcc74000$1691                    main
     00000893  A$lcc74000$1692                    main
     00000895  A$lcc74000$1693                    main
     00000896  A$lcc74000$1694                    main
     00000897  A$lcc74000$1697                    main
     00000899  A$lcc74000$1698                    main
     0000089A  A$lcc74000$1699                    main
     0000089B  A$lcc74000$1700                    main
     0000089D  A$lcc74000$1701                    main
     0000089E  A$lcc74000$1702                    main
     0000089F  A$lcc74000$1703                    main
     000008A0  A$lcc74000$1704                    main
     000008A1  A$lcc74000$1705                    main
     000008A2  A$lcc74000$1706                    main
     000008A3  A$lcc74000$1707                    main
     000008A4  A$lcc74000$1708                    main
     000008A5  A$lcc74000$1709                    main
     000008A7  A$lcc74000$1710                    main
     000008A9  A$lcc74000$1711                    main
     000008AB  A$lcc74000$1712                    main
     000008AD  A$lcc74000$1713                    main
     000008AE  A$lcc74000$1714                    main
     000008B0  A$lcc74000$1716                    main
     000008B2  A$lcc74000$1717                    main
     000008B4  A$lcc74000$1718                    main
     000008B5  A$lcc74000$1720                    main
     000008B8  A$lcc74000$1724                    main
     000008B8  C$GameObject.c$81$2_1$211          main
     000008BA  A$lcc74000$1725                    main
     000008BB  A$lcc74000$1726                    main
     000008BC  A$lcc74000$1727                    main
     000008BE  A$lcc74000$1729                    main
     000008C0  A$lcc74000$1730                    main
     000008C1  A$lcc74000$1732                    main
     000008C3  A$lcc74000$1735                    main
     000008C4  A$lcc74000$1736                    main
     000008C5  A$lcc74000$1737                    main
     000008C6  A$lcc74000$1738                    main
     000008C9  A$lcc74000$1739                    main
     000008CA  A$lcc74000$1740                    main
     000008CB  A$lcc74000$1741                    main
     000008CC  A$lcc74000$1742                    main
     000008CD  A$lcc74000$1743                    main
     000008CE  A$lcc74000$1744                    main
     000008D0  A$lcc74000$1745                    main
     000008D1  A$lcc74000$1746                    main
     000008D2  A$lcc74000$1748                    main
ASxxxx Linker V03.00 + NoICE + sdld,  page 31.
Hexadecimal  [32-Bits]

Area                                    Addr        Size        Decimal Bytes (Attributes)
--------------------------------        ----        ----        ------- ----- ------------
_CODE                               00000200    00001063 =        4195. bytes (REL,CON)

      Value  Global                              Global Defined In Module
      -----  --------------------------------   ------------------------
     000008D4  A$lcc74000$1749                    main
     000008D5  A$lcc74000$1750                    main
     000008D6  A$lcc74000$1751                    main
     000008D7  A$lcc74000$1752                    main
     000008D9  A$lcc74000$1753                    main
     000008DA  A$lcc74000$1754                    main
     000008DC  A$lcc74000$1755                    main
     000008DD  A$lcc74000$1756                    main
     000008DF  A$lcc74000$1757                    main
     000008E1  A$lcc74000$1758                    main
     000008E3  A$lcc74000$1759                    main
     000008E5  A$lcc74000$1760                    main
     000008E6  A$lcc74000$1761                    main
     000008E8  A$lcc74000$1763                    main
     000008EA  A$lcc74000$1764                    main
     000008EC  A$lcc74000$1765                    main
     000008ED  A$lcc74000$1767                    main
     000008EF  A$lcc74000$1768                    main
     000008F2  A$lcc74000$1769                    main
     000008F4  A$lcc74000$1771                    main
     000008F7  A$lcc74000$1773                    main
     000008F9  A$lcc74000$1774                    main
     000008FA  A$lcc74000$1776                    main
     000008FB  A$lcc74000$1779                    main
     000008FD  A$lcc74000$1782                    main
     000008FE  A$lcc74000$1783                    main
     000008FF  A$lcc74000$1784                    main
     00000902  A$lcc74000$1785                    main
     00000903  A$lcc74000$1786                    main
     00000904  A$lcc74000$1787                    main
     00000905  A$lcc74000$1788                    main
     00000906  A$lcc74000$1789                    main
     00000907  A$lcc74000$1793                    main
     00000907  C$GameObject.c$84$2_1$211          main
     0000090A  A$lcc74000$1796                    main
     0000090C  A$lcc74000$1797                    main
     0000090D  A$lcc74000$1798                    main
     0000090E  A$lcc74000$1799                    main
     0000090F  A$lcc74000$1800                    main
     00000910  A$lcc74000$1802                    main
     00000911  A$lcc74000$1805                    main
     00000913  A$lcc74000$1808                    main
     00000914  A$lcc74000$1809                    main
     00000915  A$lcc74000$1810                    main
     00000918  A$lcc74000$1811                    main
     00000919  A$lcc74000$1812                    main
     0000091A  A$lcc74000$1813                    main
     0000091B  A$lcc74000$1814                    main
     0000091C  A$lcc74000$1816                    main
     0000091E  A$lcc74000$1817                    main
     0000091F  A$lcc74000$1818                    main
ASxxxx Linker V03.00 + NoICE + sdld,  page 32.
Hexadecimal  [32-Bits]

Area                                    Addr        Size        Decimal Bytes (Attributes)
--------------------------------        ----        ----        ------- ----- ------------
_CODE                               00000200    00001063 =        4195. bytes (REL,CON)

      Value  Global                              Global Defined In Module
      -----  --------------------------------   ------------------------
     00000920  A$lcc74000$1819                    main
     00000921  A$lcc74000$1820                    main
     00000923  A$lcc74000$1821                    main
     00000924  A$lcc74000$1822                    main
     00000926  A$lcc74000$1823                    main
     00000927  A$lcc74000$1824                    main
     00000929  A$lcc74000$1825                    main
     0000092B  A$lcc74000$1826                    main
     0000092D  A$lcc74000$1827                    main
     0000092F  A$lcc74000$1828                    main
     00000930  A$lcc74000$1829                    main
     00000932  A$lcc74000$1831                    main
     00000934  A$lcc74000$1832                    main
     00000936  A$lcc74000$1833                    main
     00000937  A$lcc74000$1835                    main
     00000939  A$lcc74000$1836                    main
     0000093C  A$lcc74000$1837                    main
     0000093E  A$lcc74000$1839                    main
     00000941  A$lcc74000$1841                    main
     00000943  A$lcc74000$1842                    main
     00000944  A$lcc74000$1844                    main
     00000945  A$lcc74000$1847                    main
     00000947  A$lcc74000$1850                    main
     00000948  A$lcc74000$1851                    main
     00000949  A$lcc74000$1852                    main
     0000094C  A$lcc74000$1853                    main
     0000094D  A$lcc74000$1854                    main
     0000094E  A$lcc74000$1855                    main
     0000094F  A$lcc74000$1856                    main
     00000950  A$lcc74000$1857                    main
     00000951  A$lcc74000$1861                    main
     00000951  C$GameObject.c$89$1_1$210          main
     00000954  A$lcc74000$1864                    main
     00000956  A$lcc74000$1865                    main
     00000957  A$lcc74000$1866                    main
     00000958  A$lcc74000$1867                    main
     00000959  A$lcc74000$1868                    main
     0000095A  A$lcc74000$1870                    main
     0000095B  A$lcc74000$1873                    main
     0000095D  A$lcc74000$1876                    main
     0000095E  A$lcc74000$1877                    main
     0000095F  A$lcc74000$1878                    main
     00000962  A$lcc74000$1879                    main
     00000963  A$lcc74000$1880                    main
     00000964  A$lcc74000$1881                    main
     00000965  A$lcc74000$1882                    main
     00000966  A$lcc74000$1884                    main
     00000968  A$lcc74000$1885                    main
     00000969  A$lcc74000$1886                    main
     0000096A  A$lcc74000$1887                    main
     0000096B  A$lcc74000$1888                    main
ASxxxx Linker V03.00 + NoICE + sdld,  page 33.
Hexadecimal  [32-Bits]

Area                                    Addr        Size        Decimal Bytes (Attributes)
--------------------------------        ----        ----        ------- ----- ------------
_CODE                               00000200    00001063 =        4195. bytes (REL,CON)

      Value  Global                              Global Defined In Module
      -----  --------------------------------   ------------------------
     0000096D  A$lcc74000$1889                    main
     0000096E  A$lcc74000$1890                    main
     00000970  A$lcc74000$1891                    main
     00000971  A$lcc74000$1892                    main
     00000973  A$lcc74000$1893                    main
     00000975  A$lcc74000$1894                    main
     00000977  A$lcc74000$1895                    main
     00000979  A$lcc74000$1896                    main
     0000097A  A$lcc74000$1897                    main
     0000097C  A$lcc74000$1899                    main
     0000097E  A$lcc74000$1900                    main
     00000980  A$lcc74000$1901                    main
     00000981  A$lcc74000$1903                    main
     00000983  A$lcc74000$1904                    main
     00000985  A$lcc74000$1905                    main
     00000987  A$lcc74000$1906                    main
     00000988  A$lcc74000$1907                    main
     00000989  A$lcc74000$1908                    main
     0000098A  A$lcc74000$1909                    main
     0000098C  A$lcc74000$1911                    main
     0000098D  A$lcc74000$1912                    main
     0000098F  A$lcc74000$1913                    main
     00000990  A$lcc74000$1914                    main
     00000991  A$lcc74000$1916                    main
     00000993  A$lcc74000$1917                    main
     00000994  A$lcc74000$1918                    main
     00000995  A$lcc74000$1919                    main
     00000996  A$lcc74000$1920                    main
     00000998  A$lcc74000$1921                    main
     00000999  A$lcc74000$1922                    main
     0000099B  A$lcc74000$1923                    main
     0000099C  A$lcc74000$1924                    main
     0000099E  A$lcc74000$1925                    main
     000009A0  A$lcc74000$1926                    main
     000009A2  A$lcc74000$1927                    main
     000009A4  A$lcc74000$1928                    main
     000009A5  A$lcc74000$1929                    main
     000009A7  A$lcc74000$1931                    main
     000009A9  A$lcc74000$1932                    main
     000009AB  A$lcc74000$1933                    main
     000009AC  A$lcc74000$1935                    main
     000009AE  A$lcc74000$1936                    main
     000009B0  A$lcc74000$1937                    main
     000009B2  A$lcc74000$1938                    main
     000009B3  A$lcc74000$1939                    main
     000009B4  A$lcc74000$1940                    main
     000009B5  A$lcc74000$1941                    main
     000009B7  A$lcc74000$1943                    main
     000009B8  A$lcc74000$1944                    main
     000009BA  A$lcc74000$1945                    main
     000009BB  A$lcc74000$1946                    main
ASxxxx Linker V03.00 + NoICE + sdld,  page 34.
Hexadecimal  [32-Bits]

Area                                    Addr        Size        Decimal Bytes (Attributes)
--------------------------------        ----        ----        ------- ----- ------------
_CODE                               00000200    00001063 =        4195. bytes (REL,CON)

      Value  Global                              Global Defined In Module
      -----  --------------------------------   ------------------------
     000009BC  A$lcc74000$1948                    main
     000009BE  A$lcc74000$1949                    main
     000009BF  A$lcc74000$1950                    main
     000009C0  A$lcc74000$1951                    main
     000009C2  A$lcc74000$1952                    main
     000009C3  A$lcc74000$1953                    main
     000009C4  A$lcc74000$1954                    main
     000009C5  A$lcc74000$1955                    main
     000009C6  A$lcc74000$1956                    main
     000009C7  A$lcc74000$1957                    main
     000009C8  A$lcc74000$1958                    main
     000009C9  A$lcc74000$1959                    main
     000009CA  A$lcc74000$1960                    main
     000009CB  A$lcc74000$1962                    main
     000009CD  A$lcc74000$1963                    main
     000009CE  A$lcc74000$1964                    main
     000009CF  A$lcc74000$1965                    main
     000009D1  A$lcc74000$1966                    main
     000009D3  A$lcc74000$1968                    main
     000009D5  A$lcc74000$1969                    main
     000009D7  A$lcc74000$1970                    main
     000009D8  A$lcc74000$1971                    main
     000009DA  A$lcc74000$1972                    main
     000009DB  A$lcc74000$1973                    main
     000009DD  A$lcc74000$1974                    main
     000009DE  A$lcc74000$1975                    main
     000009DF  A$lcc74000$1976                    main
     000009E0  A$lcc74000$1977                    main
     000009E1  A$lcc74000$1978                    main
     000009E4  A$lcc74000$1979                    main
     000009E5  A$lcc74000$1980                    main
     000009E6  A$lcc74000$1981                    main
     000009E7  A$lcc74000$1982                    main
     000009E9  A$lcc74000$1983                    main
     000009EA  A$lcc74000$1984                    main
     000009EB  A$lcc74000$1985                    main
     000009EC  A$lcc74000$1986                    main
     000009EE  A$lcc74000$1987                    main
     000009EF  A$lcc74000$1988                    main
     000009F0  A$lcc74000$1989                    main
     000009F1  A$lcc74000$1990                    main
     000009F2  A$lcc74000$1991                    main
     000009F5  A$lcc74000$1992                    main
     000009F6  A$lcc74000$1993                    main
     000009F7  A$lcc74000$1994                    main
     000009F8  A$lcc74000$1995                    main
     000009FA  A$lcc74000$1996                    main
     000009FB  A$lcc74000$1997                    main
     000009FC  A$lcc74000$1998                    main
     000009FD  A$lcc74000$1999                    main
     000009FF  A$lcc74000$2000                    main
ASxxxx Linker V03.00 + NoICE + sdld,  page 35.
Hexadecimal  [32-Bits]

Area                                    Addr        Size        Decimal Bytes (Attributes)
--------------------------------        ----        ----        ------- ----- ------------
_CODE                               00000200    00001063 =        4195. bytes (REL,CON)

      Value  Global                              Global Defined In Module
      -----  --------------------------------   ------------------------
     00000A00  A$lcc74000$2001                    main
     00000A01  A$lcc74000$2002                    main
     00000A02  A$lcc74000$2003                    main
     00000A03  A$lcc74000$2004                    main
     00000A04  A$lcc74000$2005                    main
     00000A05  A$lcc74000$2006                    main
     00000A06  A$lcc74000$2014                    main
     00000A06  C$GameObject.c$95$1_1$208          main
     00000A06  C$GameObject.c$97$1_1$208          main
     00000A08  A$lcc74000$2015                    main
     00000A09  A$lcc74000$2016                    main
     00000A0B  A$lcc74000$2017                    main
     00000A0C  A$lcc74000$2027                    main
     00000A0C  C$main.c$15$1_1$259                main
     00000A0C  G$getInput$0$0                     main
     00000A0C  _getInput                          main
     00000A0E  A$lcc74000$2028                    main
     00000A0F  A$lcc74000$2029                    main
     00000A11  A$lcc74000$2030                    main
     00000A12  A$lcc74000$2031                    main
     00000A13  A$lcc74000$2035                    main
     00000A13  C$main.c$17$1_0$259                main
     00000A14  A$lcc74000$2036                    main
     00000A15  A$lcc74000$2037                    main
     00000A16  A$lcc74000$2038                    main
     00000A17  A$lcc74000$2039                    main
     00000A18  A$lcc74000$2040                    main
     00000A19  A$lcc74000$2041                    main
     00000A1A  A$lcc74000$2042                    main
     00000A1B  A$lcc74000$2046                    main
     00000A1B  C$main.c$18$1_0$259                main
     00000A1D  A$lcc74000$2047                    main
     00000A1E  A$lcc74000$2048                    main
     00000A20  A$lcc74000$2049                    main
     00000A21  A$lcc74000$2050                    main
     00000A23  A$lcc74000$2051                    main
     00000A24  A$lcc74000$2052                    main
     00000A26  A$lcc74000$2053                    main
     00000A27  A$lcc74000$2054                    main
     00000A28  A$lcc74000$2055                    main
     00000A29  A$lcc74000$2056                    main
     00000A2A  A$lcc74000$2057                    main
     00000A2B  A$lcc74000$2058                    main
     00000A2C  A$lcc74000$2062                    main
     00000A2C  C$main.c$20$1_0$259                main
     00000A2E  A$lcc74000$2063                    main
     00000A30  A$lcc74000$2067                    main
     00000A30  C$main.c$22$2_0$260                main
     00000A31  A$lcc74000$2068                    main
     00000A32  A$lcc74000$2069                    main
     00000A34  A$lcc74000$2070                    main
ASxxxx Linker V03.00 + NoICE + sdld,  page 36.
Hexadecimal  [32-Bits]

Area                                    Addr        Size        Decimal Bytes (Attributes)
--------------------------------        ----        ----        ------- ----- ------------
_CODE                               00000200    00001063 =        4195. bytes (REL,CON)

      Value  Global                              Global Defined In Module
      -----  --------------------------------   ------------------------
     00000A35  A$lcc74000$2071                    main
     00000A37  A$lcc74000$2076                    main
     00000A37  C$main.c$24$1_0$259                main
     00000A39  A$lcc74000$2077                    main
     00000A3B  A$lcc74000$2081                    main
     00000A3B  C$main.c$26$2_0$261                main
     00000A3C  A$lcc74000$2082                    main
     00000A3D  A$lcc74000$2083                    main
     00000A3F  A$lcc74000$2084                    main
     00000A40  A$lcc74000$2085                    main
     00000A42  A$lcc74000$2090                    main
     00000A42  C$main.c$28$1_0$259                main
     00000A44  A$lcc74000$2091                    main
     00000A46  A$lcc74000$2095                    main
     00000A46  C$main.c$30$2_0$262                main
     00000A48  A$lcc74000$2096                    main
     00000A49  A$lcc74000$2097                    main
     00000A4A  A$lcc74000$2098                    main
     00000A4B  A$lcc74000$2099                    main
     00000A4D  A$lcc74000$2100                    main
     00000A4E  A$lcc74000$2101                    main
     00000A50  A$lcc74000$2106                    main
     00000A50  C$main.c$32$1_0$259                main
     00000A52  A$lcc74000$2107                    main
     00000A54  A$lcc74000$2111                    main
     00000A54  C$main.c$34$2_0$263                main
     00000A56  A$lcc74000$2112                    main
     00000A57  A$lcc74000$2113                    main
     00000A58  A$lcc74000$2114                    main
     00000A59  A$lcc74000$2115                    main
     00000A5B  A$lcc74000$2116                    main
     00000A5C  A$lcc74000$2117                    main
     00000A5E  A$lcc74000$2122                    main
     00000A5E  C$main.c$37$1_0$259                main
     00000A60  A$lcc74000$2123                    main
     00000A61  A$lcc74000$2124                    main
     00000A62  A$lcc74000$2125                    main
     00000A63  A$lcc74000$2126                    main
     00000A64  A$lcc74000$2127                    main
     00000A66  A$lcc74000$2128                    main
     00000A67  A$lcc74000$2129                    main
     00000A68  A$lcc74000$2130                    main
     00000A69  A$lcc74000$2131                    main
     00000A6A  A$lcc74000$2132                    main
     00000A6B  A$lcc74000$2133                    main
     00000A6C  A$lcc74000$2134                    main
     00000A6E  A$lcc74000$2135                    main
     00000A6F  A$lcc74000$2136                    main
     00000A70  A$lcc74000$2137                    main
     00000A71  A$lcc74000$2138                    main
     00000A72  A$lcc74000$2139                    main
ASxxxx Linker V03.00 + NoICE + sdld,  page 37.
Hexadecimal  [32-Bits]

Area                                    Addr        Size        Decimal Bytes (Attributes)
--------------------------------        ----        ----        ------- ----- ------------
_CODE                               00000200    00001063 =        4195. bytes (REL,CON)

      Value  Global                              Global Defined In Module
      -----  --------------------------------   ------------------------
     00000A73  A$lcc74000$2140                    main
     00000A74  A$lcc74000$2141                    main
     00000A75  A$lcc74000$2142                    main
     00000A77  A$lcc74000$2146                    main
     00000A77  C$main.c$39$2_0$264                main
     00000A78  A$lcc74000$2147                    main
     00000A79  A$lcc74000$2148                    main
     00000A7A  A$lcc74000$2149                    main
     00000A7C  A$lcc74000$2150                    main
     00000A7D  A$lcc74000$2151                    main
     00000A7F  A$lcc74000$2152                    main
     00000A80  A$lcc74000$2153                    main
     00000A82  A$lcc74000$2154                    main
     00000A83  A$lcc74000$2155                    main
     00000A84  A$lcc74000$2156                    main
     00000A85  A$lcc74000$2157                    main
     00000A86  A$lcc74000$2158                    main
     00000A87  A$lcc74000$2159                    main
     00000A88  A$lcc74000$2160                    main
     00000A89  A$lcc74000$2161                    main
     00000A8A  A$lcc74000$2162                    main
     00000A8B  A$lcc74000$2163                    main
     00000A8D  A$lcc74000$2164                    main
     00000A8F  A$lcc74000$2165                    main
     00000A91  A$lcc74000$2166                    main
     00000A93  A$lcc74000$2167                    main
     00000A94  A$lcc74000$2168                    main
     00000A96  A$lcc74000$2170                    main
     00000A98  A$lcc74000$2171                    main
     00000A9A  A$lcc74000$2172                    main
     00000A9B  A$lcc74000$2174                    main
     00000A9D  A$lcc74000$2175                    main
     00000A9F  A$lcc74000$2176                    main
     00000AA1  A$lcc74000$2177                    main
     00000AA2  A$lcc74000$2178                    main
     00000AA3  A$lcc74000$2179                    main
     00000AA4  A$lcc74000$2180                    main
     00000AA6  A$lcc74000$2182                    main
     00000AA8  A$lcc74000$2183                    main
     00000AAA  A$lcc74000$2184                    main
     00000AAB  A$lcc74000$2185                    main
     00000AAD  A$lcc74000$2187                    main
     00000AAF  A$lcc74000$2188                    main
     00000AB0  A$lcc74000$2189                    main
     00000AB1  A$lcc74000$2190                    main
     00000AB2  A$lcc74000$2191                    main
     00000AB3  A$lcc74000$2192                    main
     00000AB4  A$lcc74000$2193                    main
     00000AB5  A$lcc74000$2194                    main
     00000AB6  A$lcc74000$2195                    main
     00000AB7  A$lcc74000$2196                    main
ASxxxx Linker V03.00 + NoICE + sdld,  page 38.
Hexadecimal  [32-Bits]

Area                                    Addr        Size        Decimal Bytes (Attributes)
--------------------------------        ----        ----        ------- ----- ------------
_CODE                               00000200    00001063 =        4195. bytes (REL,CON)

      Value  Global                              Global Defined In Module
      -----  --------------------------------   ------------------------
     00000AB8  A$lcc74000$2200                    main
     00000AB8  C$main.c$40$2_0$264                main
     00000AB9  A$lcc74000$2201                    main
     00000ABA  A$lcc74000$2202                    main
     00000ABB  A$lcc74000$2203                    main
     00000ABC  A$lcc74000$2204                    main
     00000ABD  A$lcc74000$2205                    main
     00000ABE  A$lcc74000$2208                    main
     00000ABF  A$lcc74000$2209                    main
     00000AC0  A$lcc74000$2210                    main
     00000AC1  A$lcc74000$2213                    main
     00000AC2  A$lcc74000$2214                    main
     00000AC3  A$lcc74000$2215                    main
     00000AC4  A$lcc74000$2216                    main
     00000AC5  A$lcc74000$2217                    main
     00000AC6  A$lcc74000$2218                    main
     00000AC8  A$lcc74000$2219                    main
     00000ACA  A$lcc74000$2220                    main
     00000ACC  A$lcc74000$2221                    main
     00000ACE  A$lcc74000$2222                    main
     00000ACF  A$lcc74000$2223                    main
     00000AD1  A$lcc74000$2225                    main
     00000AD3  A$lcc74000$2226                    main
     00000AD5  A$lcc74000$2227                    main
     00000AD6  A$lcc74000$2229                    main
     00000AD8  A$lcc74000$2230                    main
     00000ADB  A$lcc74000$2231                    main
     00000ADD  A$lcc74000$2233                    main
     00000AE0  A$lcc74000$2235                    main
     00000AE1  A$lcc74000$2236                    main
     00000AE2  A$lcc74000$2237                    main
     00000AE3  A$lcc74000$2238                    main
     00000AE4  A$lcc74000$2239                    main
     00000AE5  A$lcc74000$2244                    main
     00000AE5  C$main.c$42$1_0$259                main
     00000AE7  A$lcc74000$2245                    main
     00000AE8  A$lcc74000$2246                    main
     00000AE9  A$lcc74000$2247                    main
     00000AEA  A$lcc74000$2257                    main
     00000AEA  C$main.c$68$1_0$269                main
     00000AEA  G$main$0$0                         main
     00000AEA  _main                              main
     00000AEC  A$lcc74000$2261                    main
     00000AEC  C$main.c$70$1_0$269                main
     00000AEE  A$lcc74000$2262                    main
     00000AF0  A$lcc74000$2263                    main
     00000AF2  A$lcc74000$2267                    main
     00000AF2  C$main.c$71$1_0$269                main
     00000AF4  A$lcc74000$2268                    main
     00000AF6  A$lcc74000$2269                    main
     00000AF8  A$lcc74000$2273                    main
ASxxxx Linker V03.00 + NoICE + sdld,  page 39.
Hexadecimal  [32-Bits]

Area                                    Addr        Size        Decimal Bytes (Attributes)
--------------------------------        ----        ----        ------- ----- ------------
_CODE                               00000200    00001063 =        4195. bytes (REL,CON)

      Value  Global                              Global Defined In Module
      -----  --------------------------------   ------------------------
     00000AF8  C$main.c$73$2_0$270                main
     00000AFA  A$lcc74000$2274                    main
     00000AFC  A$lcc74000$2278                    main
     00000AFC  C$main.c$75$2_0$270                main
     00000AFE  A$lcc74000$2279                    main
     00000B00  A$lcc74000$2283                    main
     00000B00  C$main.c$78$1_1$270                main
     00000B03  A$lcc74000$2284                    main
     00000B04  A$lcc74000$2285                    main
     00000B07  A$lcc74000$2286                    main
     00000B08  A$lcc74000$2287                    main
     00000B0B  A$lcc74000$2288                    main
     00000B0D  A$lcc74000$2290                    main
     00000B10  A$lcc74000$2291                    main
     00000B12  A$lcc74000$2292                    main
     00000B15  A$lcc74000$2293                    main
     00000B17  A$lcc74000$2297                    main
     00000B17  C$main.c$84$1_1$270                main
     00000B1A  A$lcc74000$2298                    main
     00000B1B  A$lcc74000$2299                    main
     00000B1E  A$lcc74000$2300                    main
     00000B1F  A$lcc74000$2301                    main
     00000B22  A$lcc74000$2302                    main
     00000B24  A$lcc74000$2306                    main
     00000B24  C$main.c$86$1_1$270                main
     00000B27  A$lcc74000$2307                    main
     00000B28  A$lcc74000$2308                    main
     00000B2B  A$lcc74000$2309                    main
     00000B2C  A$lcc74000$2310                    main
     00000B2D  A$lcc74000$2311                    main
     00000B2E  A$lcc74000$2312                    main
     00000B2F  A$lcc74000$2313                    main
     00000B32  A$lcc74000$2314                    main
     00000B34  A$lcc74000$2318                    main
     00000B34  C$main.c$89$1_2$271                main
     00000B35  A$lcc74000$2319                    main
     00000B37  A$lcc74000$2320                    main
     00000B38  A$lcc74000$2324                    main
     00000B38  C$main.c$90$1_2$271                main
     00000B39  A$lcc74000$2325                    main
     00000B3A  A$lcc74000$2326                    main
     00000B3B  A$lcc74000$2330                    main
     00000B3B  C$main.c$91$1_2$271                main
     00000B3C  A$lcc74000$2331                    main
     00000B3D  A$lcc74000$2332                    main
     00000B3E  A$lcc74000$2336                    main
     00000B3E  C$main.c$92$1_2$271                main
     00000B3F  A$lcc74000$2337                    main
     00000B40  A$lcc74000$2338                    main
     00000B41  A$lcc74000$2339                    main
     00000B42  A$lcc74000$2343                    main
ASxxxx Linker V03.00 + NoICE + sdld,  page 40.
Hexadecimal  [32-Bits]

Area                                    Addr        Size        Decimal Bytes (Attributes)
--------------------------------        ----        ----        ------- ----- ------------
_CODE                               00000200    00001063 =        4195. bytes (REL,CON)

      Value  Global                              Global Defined In Module
      -----  --------------------------------   ------------------------
     00000B42  C$main.c$93$1_2$271                main
     00000B44  A$lcc74000$2347                    main
     00000B44  C$main.c$94$1_2$271                main
     00000B45  A$lcc74000$2348                    main
     00000B46  A$lcc74000$2355                    main
     00000B46  C$main.c$95$1_2$271                main
     00000B46  C$main.c$96$1_2$271                main
     00000B48  A$lcc74000$2356                    main
     00000B49  A$lcc74000$2357                    main
     00000B4A  A$lcc74000$2361                    main
     00000B4A  C$main.c$97$1_2$271                main
     00000B4B  A$lcc74000$2362                    main
     00000B4C  A$lcc74000$2363                    main
     00000B4E  A$lcc74000$2367                    main
     00000B4E  C$main.c$98$1_3$269                main
     00000B50  A$lcc74000$2368                    main
     00000B51  A$lcc74000$2369                    main
     00000B52  A$lcc74000$2373                    main
     00000B53  A$lcc74000$2374                    main
     00000B55  A$lcc74000$2375                    main
     00000B56  A$lcc74000$2379                    main
     00000B56  C$main.c$98$3_2$295                main
     00000B58  A$lcc74000$2380                    main
     00000B59  A$lcc74000$2381                    main
     00000B5A  A$lcc74000$2382                    main
     00000B5B  A$lcc74000$2386                    main
     00000B5B  C$main.c$99$1_2$271                main
     00000B5D  A$lcc74000$2387                    main
     00000B5E  A$lcc74000$2388                    main
     00000B5F  A$lcc74000$2392                    main
     00000B60  A$lcc74000$2393                    main
     00000B62  A$lcc74000$2394                    main
     00000B63  A$lcc74000$2398                    main
     00000B63  C$main.c$99$3_2$298                main
     00000B65  A$lcc74000$2399                    main
     00000B66  A$lcc74000$2400                    main
     00000B67  A$lcc74000$2404                    main
     00000B67  C$main.c$100$1_2$271               main
     00000B68  A$lcc74000$2405                    main
     00000B69  A$lcc74000$2406                    main
     00000B6A  A$lcc74000$2407                    main
     00000B6B  A$lcc74000$2411                    main
     00000B6B  C$main.c$101$1_2$271               main
     00000B6D  A$lcc74000$2412                    main
     00000B6E  A$lcc74000$2413                    main
     00000B6F  A$lcc74000$2414                    main
     00000B70  A$lcc74000$2415                    main
     00000B72  A$lcc74000$2419                    main
     00000B72  C$main.c$105$1_3$272               main
     00000B73  A$lcc74000$2420                    main
     00000B75  A$lcc74000$2421                    main
ASxxxx Linker V03.00 + NoICE + sdld,  page 41.
Hexadecimal  [32-Bits]

Area                                    Addr        Size        Decimal Bytes (Attributes)
--------------------------------        ----        ----        ------- ----- ------------
_CODE                               00000200    00001063 =        4195. bytes (REL,CON)

      Value  Global                              Global Defined In Module
      -----  --------------------------------   ------------------------
     00000B76  A$lcc74000$2425                    main
     00000B76  C$main.c$106$1_3$272               main
     00000B77  A$lcc74000$2426                    main
     00000B78  A$lcc74000$2427                    main
     00000B79  A$lcc74000$2431                    main
     00000B79  C$main.c$107$1_3$272               main
     00000B7A  A$lcc74000$2432                    main
     00000B7B  A$lcc74000$2433                    main
     00000B7C  A$lcc74000$2437                    main
     00000B7C  C$main.c$108$1_3$272               main
     00000B7D  A$lcc74000$2438                    main
     00000B7E  A$lcc74000$2439                    main
     00000B7F  A$lcc74000$2440                    main
     00000B80  A$lcc74000$2444                    main
     00000B80  C$main.c$109$1_3$272               main
     00000B82  A$lcc74000$2445                    main
     00000B84  A$lcc74000$2449                    main
     00000B84  C$main.c$110$1_3$272               main
     00000B85  A$lcc74000$2450                    main
     00000B87  A$lcc74000$2454                    main
     00000B87  C$main.c$111$1_3$272               main
     00000B88  A$lcc74000$2455                    main
     00000B8A  A$lcc74000$2459                    main
     00000B8A  C$main.c$112$1_3$272               main
     00000B8B  A$lcc74000$2460                    main
     00000B8D  A$lcc74000$2464                    main
     00000B8D  C$main.c$113$1_3$272               main
     00000B8E  A$lcc74000$2465                    main
     00000B90  A$lcc74000$2469                    main
     00000B90  C$main.c$114$1_3$269               main
     00000B92  A$lcc74000$2470                    main
     00000B93  A$lcc74000$2471                    main
     00000B94  A$lcc74000$2472                    main
     00000B95  A$lcc74000$2473                    main
     00000B97  A$lcc74000$2474                    main
     00000B98  A$lcc74000$2475                    main
     00000B99  A$lcc74000$2476                    main
     00000B9A  A$lcc74000$2480                    main
     00000B9A  C$main.c$115$1_3$272               main
     00000B9C  A$lcc74000$2481                    main
     00000B9D  A$lcc74000$2482                    main
     00000B9E  A$lcc74000$2483                    main
     00000B9F  A$lcc74000$2484                    main
     00000BA1  A$lcc74000$2485                    main
     00000BA2  A$lcc74000$2486                    main
     00000BA3  A$lcc74000$2487                    main
     00000BA4  A$lcc74000$2491                    main
     00000BA4  C$main.c$116$1_3$272               main
     00000BA5  A$lcc74000$2492                    main
     00000BA7  A$lcc74000$2493                    main
     00000BA8  A$lcc74000$2494                    main
ASxxxx Linker V03.00 + NoICE + sdld,  page 42.
Hexadecimal  [32-Bits]

Area                                    Addr        Size        Decimal Bytes (Attributes)
--------------------------------        ----        ----        ------- ----- ------------
_CODE                               00000200    00001063 =        4195. bytes (REL,CON)

      Value  Global                              Global Defined In Module
      -----  --------------------------------   ------------------------
     00000BAA  A$lcc74000$2498                    main
     00000BAA  C$main.c$117$1_3$272               main
     00000BAB  A$lcc74000$2499                    main
     00000BAD  A$lcc74000$2500                    main
     00000BAE  A$lcc74000$2501                    main
     00000BB0  A$lcc74000$2505                    main
     00000BB0  C$main.c$119$1_3$269               main
     00000BB2  A$lcc74000$2506                    main
     00000BB4  A$lcc74000$2511                    main
     00000BB4  C$main.c$123$2_3$273               main
     00000BB7  A$lcc74000$2512                    main
     00000BB8  A$lcc74000$2516                    main
     00000BB8  C$main.c$124$2_3$273               main
     00000BBA  A$lcc74000$2517                    main
     00000BBC  A$lcc74000$2521                    main
     00000BBC  C$main.c$126$3_3$274               main
     00000BBE  A$lcc74000$2522                    main
     00000BC0  A$lcc74000$2526                    main
     00000BC0  C$main.c$127$3_3$274               main
     00000BC2  A$lcc74000$2527                    main
     00000BC4  A$lcc74000$2532                    main
     00000BC4  C$main.c$129$2_3$273               main
     00000BC6  A$lcc74000$2533                    main
     00000BC7  A$lcc74000$2534                    main
     00000BC8  A$lcc74000$2535                    main
     00000BCB  A$lcc74000$2536                    main
     00000BCC  A$lcc74000$2537                    main
     00000BCD  A$lcc74000$2538                    main
     00000BCE  A$lcc74000$2539                    main
     00000BD1  A$lcc74000$2541                    main
     00000BD3  A$lcc74000$2542                    main
     00000BD4  A$lcc74000$2543                    main
     00000BD5  A$lcc74000$2544                    main
     00000BD7  A$lcc74000$2545                    main
     00000BD8  A$lcc74000$2546                    main
     00000BD9  A$lcc74000$2547                    main
     00000BDA  A$lcc74000$2548                    main
     00000BDC  A$lcc74000$2549                    main
     00000BDD  A$lcc74000$2550                    main
     00000BDE  A$lcc74000$2552                    main
     00000BE0  A$lcc74000$2553                    main
     00000BE1  A$lcc74000$2554                    main
     00000BE2  A$lcc74000$2557                    main
     00000BE3  A$lcc74000$2561                    main
     00000BE4  A$lcc74000$2562                    main
     00000BE5  A$lcc74000$2563                    main
     00000BE6  A$lcc74000$2565                    main
     00000BE8  A$lcc74000$2566                    main
     00000BE9  A$lcc74000$2567                    main
     00000BEA  A$lcc74000$2569                    main
     00000BEB  A$lcc74000$2570                    main
ASxxxx Linker V03.00 + NoICE + sdld,  page 43.
Hexadecimal  [32-Bits]

Area                                    Addr        Size        Decimal Bytes (Attributes)
--------------------------------        ----        ----        ------- ----- ------------
_CODE                               00000200    00001063 =        4195. bytes (REL,CON)

      Value  Global                              Global Defined In Module
      -----  --------------------------------   ------------------------
     00000BEC  A$lcc74000$2571                    main
     00000BED  A$lcc74000$2572                    main
     00000BEE  A$lcc74000$2573                    main
     00000BEF  A$lcc74000$2575                    main
     00000BF1  A$lcc74000$2576                    main
     00000BF2  A$lcc74000$2577                    main
     00000BF3  A$lcc74000$2578                    main
     00000BF4  A$lcc74000$2579                    main
     00000BF5  A$lcc74000$2580                    main
     00000BF6  A$lcc74000$2581                    main
     00000BF7  A$lcc74000$2583                    main
     00000BF9  A$lcc74000$2584                    main
     00000BFA  A$lcc74000$2585                    main
     00000BFB  A$lcc74000$2586                    main
     00000BFC  A$lcc74000$2590                    main
     00000BFC  C$main.c$131$2_3$273               main
     00000BFE  A$lcc74000$2591                    main
     00000BFF  A$lcc74000$2592                    main
     00000C02  A$lcc74000$2593                    main
     00000C03  A$lcc74000$2594                    main
     00000C04  A$lcc74000$2595                    main
     00000C05  A$lcc74000$2596                    main
     00000C08  A$lcc74000$2600                    main
     00000C08  C$main.c$132$2_3$273               main
     00000C0B  A$lcc74000$2601                    main
     00000C0C  A$lcc74000$2602                    main
     00000C0D  A$lcc74000$2603                    main
     00000C0E  A$lcc74000$2604                    main
     00000C11  A$lcc74000$2605                    main
     00000C12  A$lcc74000$2606                    main
     00000C13  A$lcc74000$2607                    main
     00000C14  A$lcc74000$2608                    main
     00000C17  A$lcc74000$2612                    main
     00000C17  C$main.c$133$2_3$273               main
     00000C19  A$lcc74000$2613                    main
     00000C1A  A$lcc74000$2614                    main
     00000C1B  A$lcc74000$2615                    main
     00000C1C  A$lcc74000$2616                    main
     00000C1D  A$lcc74000$2617                    main
     00000C1F  A$lcc74000$2618                    main
     00000C20  A$lcc74000$2619                    main
     00000C21  A$lcc74000$2620                    main
     00000C22  A$lcc74000$2621                    main
     00000C23  A$lcc74000$2622                    main
     00000C24  A$lcc74000$2623                    main
     00000C25  A$lcc74000$2624                    main
     00000C28  A$lcc74000$2628                    main
     00000C28  C$main.c$135$2_3$273               main
     00000C2A  A$lcc74000$2629                    main
     00000C2B  A$lcc74000$2630                    main
     00000C2C  A$lcc74000$2631                    main
ASxxxx Linker V03.00 + NoICE + sdld,  page 44.
Hexadecimal  [32-Bits]

Area                                    Addr        Size        Decimal Bytes (Attributes)
--------------------------------        ----        ----        ------- ----- ------------
_CODE                               00000200    00001063 =        4195. bytes (REL,CON)

      Value  Global                              Global Defined In Module
      -----  --------------------------------   ------------------------
     00000C2F  A$lcc74000$2633                    main
     00000C31  A$lcc74000$2634                    main
     00000C32  A$lcc74000$2635                    main
     00000C33  A$lcc74000$2636                    main
     00000C34  A$lcc74000$2637                    main
     00000C35  A$lcc74000$2638                    main
     00000C36  A$lcc74000$2640                    main
     00000C37  A$lcc74000$2641                    main
     00000C38  A$lcc74000$2642                    main
     00000C39  A$lcc74000$2643                    main
     00000C3A  A$lcc74000$2644                    main
     00000C3B  A$lcc74000$2645                    main
     00000C3D  A$lcc74000$2646                    main
     00000C3E  A$lcc74000$2647                    main
     00000C3F  A$lcc74000$2651                    main
     00000C3F  C$main.c$137$5_3$310               main
     00000C40  A$lcc74000$2652                    main
     00000C41  A$lcc74000$2653                    main
     00000C43  A$lcc74000$2654                    main
     00000C44  A$lcc74000$2655                    main
     00000C46  A$lcc74000$2656                    main
     00000C47  A$lcc74000$2657                    main
     00000C49  A$lcc74000$2658                    main
     00000C4A  A$lcc74000$2660                    main
     00000C4C  A$lcc74000$2661                    main
     00000C4D  A$lcc74000$2662                    main
     00000C4E  A$lcc74000$2663                    main
     00000C4F  A$lcc74000$2664                    main
     00000C51  A$lcc74000$2665                    main
     00000C52  A$lcc74000$2666                    main
     00000C53  A$lcc74000$2672                    main
     00000C54  A$lcc74000$2673                    main
     00000C55  A$lcc74000$2674                    main
     00000C56  A$lcc74000$2675                    main
     00000C57  A$lcc74000$2676                    main
     00000C59  A$lcc74000$2677                    main
     00000C5A  A$lcc74000$2678                    main
     00000C5B  A$lcc74000$2682                    main
     00000C5B  C$main.c$138$5_3$313               main
     00000C5C  A$lcc74000$2683                    main
     00000C5D  A$lcc74000$2684                    main
     00000C5F  A$lcc74000$2685                    main
     00000C60  A$lcc74000$2686                    main
     00000C62  A$lcc74000$2687                    main
     00000C63  A$lcc74000$2688                    main
     00000C65  A$lcc74000$2689                    main
     00000C66  A$lcc74000$2693                    main
     00000C66  C$main.c$139$3_3$275               main
     00000C68  A$lcc74000$2694                    main
     00000C69  A$lcc74000$2695                    main
     00000C6A  A$lcc74000$2696                    main
ASxxxx Linker V03.00 + NoICE + sdld,  page 45.
Hexadecimal  [32-Bits]

Area                                    Addr        Size        Decimal Bytes (Attributes)
--------------------------------        ----        ----        ------- ----- ------------
_CODE                               00000200    00001063 =        4195. bytes (REL,CON)

      Value  Global                              Global Defined In Module
      -----  --------------------------------   ------------------------
     00000C6C  A$lcc74000$2697                    main
     00000C6D  A$lcc74000$2698                    main
     00000C6E  A$lcc74000$2699                    main
     00000C6F  A$lcc74000$2700                    main
     00000C70  A$lcc74000$2701                    main
     00000C71  A$lcc74000$2702                    main
     00000C73  A$lcc74000$2704                    main
     00000C75  A$lcc74000$2705                    main
     00000C77  A$lcc74000$2707                    main
     00000C78  A$lcc74000$2708                    main
     00000C7A  A$lcc74000$2709                    main
     00000C7C  A$lcc74000$2710                    main
     00000C7D  A$lcc74000$2711                    main
     00000C7E  A$lcc74000$2712                    main
     00000C7F  A$lcc74000$2716                    main
     00000C7F  C$main.c$140$3_3$275               main
     00000C81  A$lcc74000$2717                    main
     00000C82  A$lcc74000$2718                    main
     00000C83  A$lcc74000$2719                    main
     00000C85  A$lcc74000$2720                    main
     00000C86  A$lcc74000$2721                    main
     00000C87  A$lcc74000$2722                    main
     00000C88  A$lcc74000$2723                    main
     00000C89  A$lcc74000$2724                    main
     00000C8A  A$lcc74000$2725                    main
     00000C8C  A$lcc74000$2727                    main
     00000C8E  A$lcc74000$2728                    main
     00000C90  A$lcc74000$2730                    main
     00000C91  A$lcc74000$2731                    main
     00000C93  A$lcc74000$2732                    main
     00000C95  A$lcc74000$2733                    main
     00000C96  A$lcc74000$2734                    main
     00000C97  A$lcc74000$2735                    main
     00000C98  A$lcc74000$2737                    main
     00000C9A  A$lcc74000$2738                    main
     00000C9B  A$lcc74000$2739                    main
     00000C9C  A$lcc74000$2740                    main
     00000C9D  A$lcc74000$2742                    main
     00000C9F  A$lcc74000$2743                    main
     00000CA0  A$lcc74000$2744                    main
     00000CA1  A$lcc74000$2747                    main
     00000CA2  A$lcc74000$2751                    main
     00000CA3  A$lcc74000$2752                    main
     00000CA4  A$lcc74000$2753                    main
     00000CA5  A$lcc74000$2755                    main
     00000CA7  A$lcc74000$2756                    main
     00000CA8  A$lcc74000$2757                    main
     00000CA9  A$lcc74000$2759                    main
     00000CAA  A$lcc74000$2760                    main
     00000CAB  A$lcc74000$2761                    main
     00000CAC  A$lcc74000$2762                    main
ASxxxx Linker V03.00 + NoICE + sdld,  page 46.
Hexadecimal  [32-Bits]

Area                                    Addr        Size        Decimal Bytes (Attributes)
--------------------------------        ----        ----        ------- ----- ------------
_CODE                               00000200    00001063 =        4195. bytes (REL,CON)

      Value  Global                              Global Defined In Module
      -----  --------------------------------   ------------------------
     00000CAD  A$lcc74000$2763                    main
     00000CAE  A$lcc74000$2765                    main
     00000CB0  A$lcc74000$2766                    main
     00000CB1  A$lcc74000$2767                    main
     00000CB2  A$lcc74000$2768                    main
     00000CB3  A$lcc74000$2769                    main
     00000CB4  A$lcc74000$2770                    main
     00000CB5  A$lcc74000$2771                    main
     00000CB6  A$lcc74000$2773                    main
     00000CB8  A$lcc74000$2774                    main
     00000CB9  A$lcc74000$2775                    main
     00000CBA  A$lcc74000$2776                    main
     00000CBB  A$lcc74000$2780                    main
     00000CBB  C$main.c$141$2_3$273               main
     00000CBE  A$lcc74000$2784                    main
     00000CC0  A$lcc74000$2785                    main
     00000CC1  A$lcc74000$2786                    main
     00000CC3  A$lcc74000$2787                    main
     00000CC4  A$lcc74000$2788                    main
     00000CC6  A$lcc74000$2789                    main
     00000CC7  A$lcc74000$2790                    main
     00000CC9  A$lcc74000$2791                    main
     00000CCA  A$lcc74000$2792                    main
     00000CCC  A$lcc74000$2793                    main
     00000CCD  A$lcc74000$2794                    main
     00000CCF  A$lcc74000$2795                    main
     00000CD0  A$lcc74000$2796                    main
     00000CD2  A$lcc74000$2797                    main
     00000CD3  A$lcc74000$2798                    main
     00000CD5  A$lcc74000$2799                    main
     00000CD6  A$lcc74000$2800                    main
     00000CD8  A$lcc74000$2801                    main
     00000CD9  A$lcc74000$2802                    main
     00000CDA  A$lcc74000$2803                    main
     00000CDB  A$lcc74000$2804                    main
     00000CDD  A$lcc74000$2805                    main
     00000CDE  A$lcc74000$2806                    main
     00000CDF  A$lcc74000$2807                    main
     00000CE0  A$lcc74000$2808                    main
     00000CE1  A$lcc74000$2809                    main
     00000CE2  A$lcc74000$2810                    main
     00000CE3  A$lcc74000$2811                    main
     00000CE5  A$lcc74000$2812                    main
     00000CE6  A$lcc74000$2813                    main
     00000CE7  A$lcc74000$2814                    main
     00000CE8  A$lcc74000$2815                    main
     00000CE9  A$lcc74000$2816                    main
     00000CEA  A$lcc74000$2817                    main
     00000CEB  A$lcc74000$2818                    main
     00000CED  A$lcc74000$2819                    main
     00000CEF  A$lcc74000$2820                    main
ASxxxx Linker V03.00 + NoICE + sdld,  page 47.
Hexadecimal  [32-Bits]

Area                                    Addr        Size        Decimal Bytes (Attributes)
--------------------------------        ----        ----        ------- ----- ------------
_CODE                               00000200    00001063 =        4195. bytes (REL,CON)

      Value  Global                              Global Defined In Module
      -----  --------------------------------   ------------------------
     00000CF1  A$lcc74000$2821                    main
     00000CF3  A$lcc74000$2822                    main
     00000CF4  A$lcc74000$2823                    main
     00000CF6  A$lcc74000$2825                    main
     00000CF8  A$lcc74000$2826                    main
     00000CFA  A$lcc74000$2827                    main
     00000CFB  A$lcc74000$2829                    main
     00000CFE  A$lcc74000$2830                    main
     00000D00  A$lcc74000$2831                    main
     00000D01  A$lcc74000$2832                    main
     00000D03  A$lcc74000$2833                    main
     00000D04  A$lcc74000$2834                    main
     00000D06  A$lcc74000$2835                    main
     00000D07  A$lcc74000$2836                    main
     00000D09  A$lcc74000$2837                    main
     00000D0A  A$lcc74000$2838                    main
     00000D0C  A$lcc74000$2839                    main
     00000D0D  A$lcc74000$2840                    main
     00000D0E  A$lcc74000$2841                    main
     00000D0F  A$lcc74000$2842                    main
     00000D11  A$lcc74000$2843                    main
     00000D12  A$lcc74000$2844                    main
     00000D13  A$lcc74000$2845                    main
     00000D14  A$lcc74000$2846                    main
     00000D15  A$lcc74000$2847                    main
     00000D16  A$lcc74000$2848                    main
     00000D17  A$lcc74000$2849                    main
     00000D19  A$lcc74000$2850                    main
     00000D1A  A$lcc74000$2851                    main
     00000D1B  A$lcc74000$2852                    main
     00000D1C  A$lcc74000$2853                    main
     00000D1D  A$lcc74000$2854                    main
     00000D1E  A$lcc74000$2855                    main
     00000D1F  A$lcc74000$2856                    main
     00000D21  A$lcc74000$2857                    main
     00000D23  A$lcc74000$2858                    main
     00000D25  A$lcc74000$2859                    main
     00000D27  A$lcc74000$2860                    main
     00000D28  A$lcc74000$2861                    main
     00000D2A  A$lcc74000$2863                    main
     00000D2C  A$lcc74000$2864                    main
     00000D2E  A$lcc74000$2865                    main
     00000D2F  A$lcc74000$2867                    main
     00000D31  A$lcc74000$2868                    main
     00000D33  A$lcc74000$2869                    main
     00000D34  A$lcc74000$2870                    main
     00000D36  A$lcc74000$2871                    main
     00000D37  A$lcc74000$2872                    main
     00000D39  A$lcc74000$2873                    main
     00000D3A  A$lcc74000$2874                    main
     00000D3C  A$lcc74000$2875                    main
ASxxxx Linker V03.00 + NoICE + sdld,  page 48.
Hexadecimal  [32-Bits]

Area                                    Addr        Size        Decimal Bytes (Attributes)
--------------------------------        ----        ----        ------- ----- ------------
_CODE                               00000200    00001063 =        4195. bytes (REL,CON)

      Value  Global                              Global Defined In Module
      -----  --------------------------------   ------------------------
     00000D3D  A$lcc74000$2876                    main
     00000D3F  A$lcc74000$2877                    main
     00000D40  A$lcc74000$2878                    main
     00000D42  A$lcc74000$2879                    main
     00000D43  A$lcc74000$2880                    main
     00000D45  A$lcc74000$2881                    main
     00000D46  A$lcc74000$2882                    main
     00000D48  A$lcc74000$2883                    main
     00000D49  A$lcc74000$2884                    main
     00000D4B  A$lcc74000$2885                    main
     00000D4C  A$lcc74000$2886                    main
     00000D4D  A$lcc74000$2887                    main
     00000D4E  A$lcc74000$2888                    main
     00000D50  A$lcc74000$2889                    main
     00000D51  A$lcc74000$2890                    main
     00000D52  A$lcc74000$2891                    main
     00000D53  A$lcc74000$2892                    main
     00000D54  A$lcc74000$2893                    main
     00000D55  A$lcc74000$2894                    main
     00000D56  A$lcc74000$2895                    main
     00000D58  A$lcc74000$2896                    main
     00000D59  A$lcc74000$2897                    main
     00000D5A  A$lcc74000$2898                    main
     00000D5B  A$lcc74000$2899                    main
     00000D5C  A$lcc74000$2900                    main
     00000D5D  A$lcc74000$2901                    main
     00000D5E  A$lcc74000$2902                    main
     00000D60  A$lcc74000$2903                    main
     00000D62  A$lcc74000$2904                    main
     00000D64  A$lcc74000$2905                    main
     00000D66  A$lcc74000$2906                    main
     00000D67  A$lcc74000$2907                    main
     00000D69  A$lcc74000$2909                    main
     00000D6B  A$lcc74000$2910                    main
     00000D6D  A$lcc74000$2911                    main
     00000D6E  A$lcc74000$2913                    main
     00000D70  A$lcc74000$2914                    main
     00000D72  A$lcc74000$2915                    main
     00000D73  A$lcc74000$2916                    main
     00000D74  A$lcc74000$2917                    main
     00000D75  A$lcc74000$2918                    main
     00000D77  A$lcc74000$2919                    main
     00000D78  A$lcc74000$2920                    main
     00000D79  A$lcc74000$2921                    main
     00000D7A  A$lcc74000$2922                    main
     00000D7B  A$lcc74000$2923                    main
     00000D7C  A$lcc74000$2924                    main
     00000D7D  A$lcc74000$2925                    main
     00000D7F  A$lcc74000$2926                    main
     00000D80  A$lcc74000$2927                    main
     00000D81  A$lcc74000$2928                    main
ASxxxx Linker V03.00 + NoICE + sdld,  page 49.
Hexadecimal  [32-Bits]

Area                                    Addr        Size        Decimal Bytes (Attributes)
--------------------------------        ----        ----        ------- ----- ------------
_CODE                               00000200    00001063 =        4195. bytes (REL,CON)

      Value  Global                              Global Defined In Module
      -----  --------------------------------   ------------------------
     00000D82  A$lcc74000$2929                    main
     00000D83  A$lcc74000$2930                    main
     00000D84  A$lcc74000$2931                    main
     00000D85  A$lcc74000$2932                    main
     00000D87  A$lcc74000$2933                    main
     00000D89  A$lcc74000$2934                    main
     00000D8B  A$lcc74000$2935                    main
     00000D8D  A$lcc74000$2936                    main
     00000D8E  A$lcc74000$2937                    main
     00000D90  A$lcc74000$2939                    main
     00000D92  A$lcc74000$2940                    main
     00000D94  A$lcc74000$2941                    main
     00000D95  A$lcc74000$2943                    main
     00000D97  A$lcc74000$2944                    main
     00000D98  A$lcc74000$2945                    main
     00000D9A  A$lcc74000$2947                    main
     00000D9C  A$lcc74000$2952                    main
     00000D9C  C$main.c$145$5_3$325               main
     00000D9E  A$lcc74000$2953                    main
     00000DA0  A$lcc74000$2957                    main
     00000DA0  C$main.c$147$4_3$277               main
     00000DA2  A$lcc74000$2958                    main
     00000DA4  A$lcc74000$2962                    main
     00000DA4  C$main.c$148$4_3$277               main
     00000DA6  A$lcc74000$2963                    main
     00000DA8  A$lcc74000$2968                    main
     00000DA8  C$main.c$151$2_3$273               main
     00000DAA  A$lcc74000$2969                    main
     00000DAB  A$lcc74000$2970                    main
     00000DAE  A$lcc74000$2971                    main
     00000DAF  A$lcc74000$2972                    main
     00000DB0  A$lcc74000$2973                    main
     00000DB1  A$lcc74000$2974                    main
     00000DB4  A$lcc74000$2978                    main
     00000DB4  C$main.c$152$2_3$273               main
     00000DB7  A$lcc74000$2979                    main
     00000DB8  A$lcc74000$2980                    main
     00000DB9  A$lcc74000$2981                    main
     00000DBA  A$lcc74000$2982                    main
     00000DBD  A$lcc74000$2983                    main
     00000DBE  A$lcc74000$2984                    main
     00000DBF  A$lcc74000$2985                    main
     00000DC0  A$lcc74000$2986                    main
     00000DC3  A$lcc74000$2988                    main
     00000DC5  A$lcc74000$2989                    main
     00000DC7  A$lcc74000$2991                    main
     00000DC9  A$lcc74000$2992                    main
     00000DCA  A$lcc74000$2993                    main
     00000DCC  A$lcc74000$2994                    main
     00000DCF  A$lcc74000$2998                    main
     00000DCF  C$main.c$156$1_3$269               main
ASxxxx Linker V03.00 + NoICE + sdld,  page 50.
Hexadecimal  [32-Bits]

Area                                    Addr        Size        Decimal Bytes (Attributes)
--------------------------------        ----        ----        ------- ----- ------------
_CODE                               00000200    00001063 =        4195. bytes (REL,CON)

      Value  Global                              Global Defined In Module
      -----  --------------------------------   ------------------------
     00000DD2  A$lcc74000$2999                    main
     00000DD3  A$lcc74000$3000                    main
     00000DD5  A$lcc74000$3001                    main
     00000DD6  A$lcc74000$3002                    main
     00000DD7  A$lcc74000$3003                    main
     00000DD8  A$lcc74000$3004                    main
     00000DDA  A$lcc74000$3005                    main
     00000DDB  A$lcc74000$3006                    main
     00000DDC  A$lcc74000$3007                    main
     00000DDD  A$lcc74000$3008                    main
     00000DDF  A$lcc74000$3009                    main
     00000DE0  A$lcc74000$3010                    main
     00000DE1  A$lcc74000$3011                    main
     00000DE2  A$lcc74000$3012                    main
     00000DE3  A$lcc74000$3013                    main
     00000DE4  A$lcc74000$3014                    main
     00000DE6  A$lcc74000$3015                    main
     00000DE7  A$lcc74000$3016                    main
     00000DE8  A$lcc74000$3017                    main
     00000DE9  A$lcc74000$3018                    main
     00000DEC  A$lcc74000$3020                    main
     00000DEE  A$lcc74000$3021                    main
     00000DEF  A$lcc74000$3022                    main
     00000DF1  A$lcc74000$3023                    main
     00000DF2  A$lcc74000$3024                    main
     00000DF3  A$lcc74000$3025                    main
     00000DF4  A$lcc74000$3026                    main
     00000DF5  A$lcc74000$3027                    main
     00000DF6  A$lcc74000$3028                    main
     00000DF7  A$lcc74000$3029                    main
     00000DF8  A$lcc74000$3030                    main
     00000DF9  A$lcc74000$3031                    main
     00000DFC  A$lcc74000$3032                    main
     00000DFD  A$lcc74000$3033                    main
     00000DFE  A$lcc74000$3034                    main
     00000DFF  A$lcc74000$3035                    main
     00000E01  A$lcc74000$3036                    main
     00000E02  A$lcc74000$3037                    main
     00000E03  A$lcc74000$3038                    main
     00000E04  A$lcc74000$3039                    main
     00000E06  A$lcc74000$3040                    main
     00000E07  A$lcc74000$3041                    main
     00000E08  A$lcc74000$3042                    main
     00000E09  A$lcc74000$3043                    main
     00000E0A  A$lcc74000$3044                    main
     00000E0D  A$lcc74000$3045                    main
     00000E0E  A$lcc74000$3046                    main
     00000E0F  A$lcc74000$3047                    main
     00000E10  A$lcc74000$3048                    main
     00000E12  A$lcc74000$3049                    main
     00000E13  A$lcc74000$3050                    main
ASxxxx Linker V03.00 + NoICE + sdld,  page 51.
Hexadecimal  [32-Bits]

Area                                    Addr        Size        Decimal Bytes (Attributes)
--------------------------------        ----        ----        ------- ----- ------------
_CODE                               00000200    00001063 =        4195. bytes (REL,CON)

      Value  Global                              Global Defined In Module
      -----  --------------------------------   ------------------------
     00000E14  A$lcc74000$3051                    main
     00000E15  A$lcc74000$3052                    main
     00000E17  A$lcc74000$3053                    main
     00000E18  A$lcc74000$3054                    main
     00000E19  A$lcc74000$3055                    main
     00000E1A  A$lcc74000$3056                    main
     00000E1B  A$lcc74000$3057                    main
     00000E1C  A$lcc74000$3058                    main
     00000E1D  A$lcc74000$3060                    main
     00000E1E  A$lcc74000$3061                    main
     00000E1F  A$lcc74000$3062                    main
     00000E20  A$lcc74000$3063                    main
     00000E21  A$lcc74000$3064                    main
     00000E22  A$lcc74000$3065                    main
     00000E23  A$lcc74000$3066                    main
     00000E24  A$lcc74000$3067                    main
     00000E25  A$lcc74000$3068                    main
     00000E26  A$lcc74000$3069                    main
     00000E28  A$lcc74000$3070                    main
     00000E29  A$lcc74000$3071                    main
     00000E2B  A$lcc74000$3072                    main
     00000E2C  A$lcc74000$3073                    main
     00000E2E  A$lcc74000$3074                    main
     00000E2F  A$lcc74000$3075                    main
     00000E31  A$lcc74000$3076                    main
     00000E32  A$lcc74000$3077                    main
     00000E34  A$lcc74000$3078                    main
     00000E35  A$lcc74000$3079                    main
     00000E37  A$lcc74000$3080                    main
     00000E38  A$lcc74000$3081                    main
     00000E3A  A$lcc74000$3082                    main
     00000E3B  A$lcc74000$3083                    main
     00000E3D  A$lcc74000$3084                    main
     00000E3E  A$lcc74000$3085                    main
     00000E3F  A$lcc74000$3086                    main
     00000E40  A$lcc74000$3087                    main
     00000E41  A$lcc74000$3088                    main
     00000E42  A$lcc74000$3089                    main
     00000E43  A$lcc74000$3090                    main
     00000E44  A$lcc74000$3091                    main
     00000E45  A$lcc74000$3092                    main
     00000E46  A$lcc74000$3093                    main
     00000E47  A$lcc74000$3094                    main
     00000E48  A$lcc74000$3095                    main
     00000E49  A$lcc74000$3096                    main
     00000E4A  A$lcc74000$3097                    main
     00000E4C  A$lcc74000$3098                    main
     00000E4D  A$lcc74000$3099                    main
     00000E4E  A$lcc74000$3100                    main
     00000E4F  A$lcc74000$3101                    main
     00000E51  A$lcc74000$3102                    main
ASxxxx Linker V03.00 + NoICE + sdld,  page 52.
Hexadecimal  [32-Bits]

Area                                    Addr        Size        Decimal Bytes (Attributes)
--------------------------------        ----        ----        ------- ----- ------------
_CODE                               00000200    00001063 =        4195. bytes (REL,CON)

      Value  Global                              Global Defined In Module
      -----  --------------------------------   ------------------------
     00000E52  A$lcc74000$3103                    main
     00000E53  A$lcc74000$3104                    main
     00000E54  A$lcc74000$3105                    main
     00000E55  A$lcc74000$3106                    main
     00000E56  A$lcc74000$3107                    main
     00000E57  A$lcc74000$3108                    main
     00000E58  A$lcc74000$3109                    main
     00000E59  A$lcc74000$3110                    main
     00000E5B  A$lcc74000$3111                    main
     00000E5D  A$lcc74000$3112                    main
     00000E5F  A$lcc74000$3113                    main
     00000E61  A$lcc74000$3114                    main
     00000E62  A$lcc74000$3115                    main
     00000E64  A$lcc74000$3117                    main
     00000E66  A$lcc74000$3118                    main
     00000E68  A$lcc74000$3119                    main
     00000E69  A$lcc74000$3121                    main
     00000E6B  A$lcc74000$3122                    main
     00000E6D  A$lcc74000$3123                    main
     00000E6E  A$lcc74000$3124                    main
     00000E6F  A$lcc74000$3125                    main
     00000E70  A$lcc74000$3126                    main
     00000E73  A$lcc74000$3127                    main
     00000E74  A$lcc74000$3128                    main
     00000E75  A$lcc74000$3129                    main
     00000E76  A$lcc74000$3130                    main
     00000E78  A$lcc74000$3131                    main
     00000E79  A$lcc74000$3132                    main
     00000E7A  A$lcc74000$3133                    main
     00000E7B  A$lcc74000$3134                    main
     00000E7D  A$lcc74000$3135                    main
     00000E7E  A$lcc74000$3136                    main
     00000E7F  A$lcc74000$3137                    main
     00000E80  A$lcc74000$3138                    main
     00000E81  A$lcc74000$3139                    main
     00000E82  A$lcc74000$3140                    main
     00000E83  A$lcc74000$3141                    main
     00000E84  A$lcc74000$3142                    main
     00000E85  A$lcc74000$3143                    main
     00000E86  A$lcc74000$3144                    main
     00000E87  A$lcc74000$3145                    main
     00000E88  A$lcc74000$3146                    main
     00000E89  A$lcc74000$3147                    main
     00000E8A  A$lcc74000$3148                    main
     00000E8B  A$lcc74000$3149                    main
     00000E8C  A$lcc74000$3150                    main
     00000E8D  A$lcc74000$3151                    main
     00000E8F  A$lcc74000$3152                    main
     00000E90  A$lcc74000$3153                    main
     00000E91  A$lcc74000$3154                    main
     00000E92  A$lcc74000$3155                    main
ASxxxx Linker V03.00 + NoICE + sdld,  page 53.
Hexadecimal  [32-Bits]

Area                                    Addr        Size        Decimal Bytes (Attributes)
--------------------------------        ----        ----        ------- ----- ------------
_CODE                               00000200    00001063 =        4195. bytes (REL,CON)

      Value  Global                              Global Defined In Module
      -----  --------------------------------   ------------------------
     00000E93  A$lcc74000$3156                    main
     00000E94  A$lcc74000$3157                    main
     00000E95  A$lcc74000$3158                    main
     00000E97  A$lcc74000$3159                    main
     00000E99  A$lcc74000$3160                    main
     00000E9B  A$lcc74000$3161                    main
     00000E9D  A$lcc74000$3162                    main
     00000E9E  A$lcc74000$3163                    main
     00000EA0  A$lcc74000$3165                    main
     00000EA2  A$lcc74000$3166                    main
     00000EA4  A$lcc74000$3167                    main
     00000EA5  A$lcc74000$3169                    main
     00000EA7  A$lcc74000$3170                    main
     00000EA8  A$lcc74000$3173                    main
     00000EAA  A$lcc74000$3174                    main
     00000EAB  A$lcc74000$3175                    main
     00000EAC  A$lcc74000$3176                    main
     00000EAE  A$lcc74000$3177                    main
     00000EAF  A$lcc74000$3179                    main
     00000EB0  A$lcc74000$3180                    main
     00000EB1  A$lcc74000$3181                    main
     00000EB2  A$lcc74000$3182                    main
     00000EB3  A$lcc74000$3183                    main
     00000EB4  A$lcc74000$3184                    main
     00000EB5  A$lcc74000$3185                    main
     00000EB6  A$lcc74000$3186                    main
     00000EB7  A$lcc74000$3187                    main
     00000EB8  A$lcc74000$3188                    main
     00000EB9  A$lcc74000$3189                    main
     00000EBA  A$lcc74000$3190                    main
     00000EBC  A$lcc74000$3191                    main
     00000EBD  A$lcc74000$3192                    main
     00000EBF  A$lcc74000$3193                    main
     00000EC0  A$lcc74000$3194                    main
     00000EC2  A$lcc74000$3195                    main
     00000EC3  A$lcc74000$3196                    main
     00000EC5  A$lcc74000$3197                    main
     00000EC6  A$lcc74000$3198                    main
     00000EC8  A$lcc74000$3199                    main
     00000EC9  A$lcc74000$3200                    main
     00000ECA  A$lcc74000$3201                    main
     00000ECB  A$lcc74000$3202                    main
     00000ECD  A$lcc74000$3203                    main
     00000ECE  A$lcc74000$3204                    main
     00000ECF  A$lcc74000$3205                    main
     00000ED0  A$lcc74000$3206                    main
     00000ED1  A$lcc74000$3207                    main
     00000ED2  A$lcc74000$3208                    main
     00000ED3  A$lcc74000$3209                    main
     00000ED5  A$lcc74000$3210                    main
     00000ED6  A$lcc74000$3211                    main
ASxxxx Linker V03.00 + NoICE + sdld,  page 54.
Hexadecimal  [32-Bits]

Area                                    Addr        Size        Decimal Bytes (Attributes)
--------------------------------        ----        ----        ------- ----- ------------
_CODE                               00000200    00001063 =        4195. bytes (REL,CON)

      Value  Global                              Global Defined In Module
      -----  --------------------------------   ------------------------
     00000ED7  A$lcc74000$3212                    main
     00000ED8  A$lcc74000$3213                    main
     00000ED9  A$lcc74000$3214                    main
     00000EDA  A$lcc74000$3215                    main
     00000EDB  A$lcc74000$3216                    main
     00000EDD  A$lcc74000$3217                    main
     00000EDF  A$lcc74000$3218                    main
     00000EE1  A$lcc74000$3219                    main
     00000EE3  A$lcc74000$3220                    main
     00000EE4  A$lcc74000$3221                    main
     00000EE6  A$lcc74000$3223                    main
     00000EE8  A$lcc74000$3224                    main
     00000EEA  A$lcc74000$3225                    main
     00000EEB  A$lcc74000$3227                    main
     00000EEE  A$lcc74000$3228                    main
     00000EF0  A$lcc74000$3229                    main
     00000EF1  A$lcc74000$3230                    main
     00000EF2  A$lcc74000$3231                    main
     00000EF3  A$lcc74000$3232                    main
     00000EF6  A$lcc74000$3233                    main
     00000EF7  A$lcc74000$3234                    main
     00000EF8  A$lcc74000$3235                    main
     00000EF9  A$lcc74000$3236                    main
     00000EFA  A$lcc74000$3237                    main
     00000EFC  A$lcc74000$3238                    main
     00000EFD  A$lcc74000$3239                    main
     00000EFE  A$lcc74000$3240                    main
     00000EFF  A$lcc74000$3241                    main
     00000F00  A$lcc74000$3242                    main
     00000F01  A$lcc74000$3243                    main
     00000F02  A$lcc74000$3244                    main
     00000F04  A$lcc74000$3245                    main
     00000F05  A$lcc74000$3246                    main
     00000F06  A$lcc74000$3247                    main
     00000F07  A$lcc74000$3248                    main
     00000F08  A$lcc74000$3249                    main
     00000F09  A$lcc74000$3250                    main
     00000F0A  A$lcc74000$3251                    main
     00000F0C  A$lcc74000$3252                    main
     00000F0E  A$lcc74000$3253                    main
     00000F10  A$lcc74000$3254                    main
     00000F12  A$lcc74000$3255                    main
     00000F13  A$lcc74000$3256                    main
     00000F15  A$lcc74000$3258                    main
     00000F17  A$lcc74000$3259                    main
     00000F19  A$lcc74000$3260                    main
     00000F1A  A$lcc74000$3262                    main
     00000F1C  A$lcc74000$3263                    main
     00000F1E  A$lcc74000$3264                    main
     00000F1F  A$lcc74000$3265                    main
     00000F20  A$lcc74000$3266                    main
ASxxxx Linker V03.00 + NoICE + sdld,  page 55.
Hexadecimal  [32-Bits]

Area                                    Addr        Size        Decimal Bytes (Attributes)
--------------------------------        ----        ----        ------- ----- ------------
_CODE                               00000200    00001063 =        4195. bytes (REL,CON)

      Value  Global                              Global Defined In Module
      -----  --------------------------------   ------------------------
     00000F21  A$lcc74000$3267                    main
     00000F22  A$lcc74000$3268                    main
     00000F23  A$lcc74000$3269                    main
     00000F24  A$lcc74000$3270                    main
     00000F25  A$lcc74000$3271                    main
     00000F26  A$lcc74000$3272                    main
     00000F27  A$lcc74000$3273                    main
     00000F28  A$lcc74000$3274                    main
     00000F29  A$lcc74000$3275                    main
     00000F2A  A$lcc74000$3276                    main
     00000F2B  A$lcc74000$3277                    main
     00000F2D  A$lcc74000$3278                    main
     00000F2E  A$lcc74000$3279                    main
     00000F30  A$lcc74000$3280                    main
     00000F31  A$lcc74000$3281                    main
     00000F33  A$lcc74000$3282                    main
     00000F34  A$lcc74000$3283                    main
     00000F36  A$lcc74000$3284                    main
     00000F37  A$lcc74000$3285                    main
     00000F39  A$lcc74000$3286                    main
     00000F3A  A$lcc74000$3287                    main
     00000F3B  A$lcc74000$3288                    main
     00000F3C  A$lcc74000$3289                    main
     00000F3E  A$lcc74000$3290                    main
     00000F3F  A$lcc74000$3291                    main
     00000F40  A$lcc74000$3292                    main
     00000F41  A$lcc74000$3293                    main
     00000F42  A$lcc74000$3294                    main
     00000F43  A$lcc74000$3295                    main
     00000F44  A$lcc74000$3296                    main
     00000F46  A$lcc74000$3297                    main
     00000F47  A$lcc74000$3298                    main
     00000F48  A$lcc74000$3299                    main
     00000F49  A$lcc74000$3300                    main
     00000F4A  A$lcc74000$3301                    main
     00000F4B  A$lcc74000$3302                    main
     00000F4C  A$lcc74000$3303                    main
     00000F4E  A$lcc74000$3304                    main
     00000F50  A$lcc74000$3305                    main
     00000F52  A$lcc74000$3306                    main
     00000F54  A$lcc74000$3307                    main
     00000F55  A$lcc74000$3308                    main
     00000F57  A$lcc74000$3310                    main
     00000F59  A$lcc74000$3311                    main
     00000F5B  A$lcc74000$3312                    main
     00000F5C  A$lcc74000$3314                    main
     00000F5E  A$lcc74000$3315                    main
     00000F60  A$lcc74000$3316                    main
     00000F61  A$lcc74000$3317                    main
     00000F62  A$lcc74000$3318                    main
     00000F63  A$lcc74000$3319                    main
ASxxxx Linker V03.00 + NoICE + sdld,  page 56.
Hexadecimal  [32-Bits]

Area                                    Addr        Size        Decimal Bytes (Attributes)
--------------------------------        ----        ----        ------- ----- ------------
_CODE                               00000200    00001063 =        4195. bytes (REL,CON)

      Value  Global                              Global Defined In Module
      -----  --------------------------------   ------------------------
     00000F66  A$lcc74000$3320                    main
     00000F67  A$lcc74000$3321                    main
     00000F68  A$lcc74000$3322                    main
     00000F69  A$lcc74000$3323                    main
     00000F6A  A$lcc74000$3324                    main
     00000F6C  A$lcc74000$3325                    main
     00000F6D  A$lcc74000$3326                    main
     00000F6E  A$lcc74000$3327                    main
     00000F6F  A$lcc74000$3328                    main
     00000F70  A$lcc74000$3329                    main
     00000F71  A$lcc74000$3330                    main
     00000F72  A$lcc74000$3331                    main
     00000F74  A$lcc74000$3332                    main
     00000F75  A$lcc74000$3333                    main
     00000F76  A$lcc74000$3334                    main
     00000F77  A$lcc74000$3335                    main
     00000F78  A$lcc74000$3336                    main
     00000F79  A$lcc74000$3337                    main
     00000F7A  A$lcc74000$3338                    main
     00000F7C  A$lcc74000$3339                    main
     00000F7E  A$lcc74000$3340                    main
     00000F80  A$lcc74000$3341                    main
     00000F82  A$lcc74000$3342                    main
     00000F83  A$lcc74000$3343                    main
     00000F85  A$lcc74000$3345                    main
     00000F87  A$lcc74000$3346                    main
     00000F89  A$lcc74000$3347                    main
     00000F8A  A$lcc74000$3349                    main
     00000F8C  A$lcc74000$3350                    main
     00000F8E  A$lcc74000$3351                    main
     00000F90  A$lcc74000$3352                    main
     00000F92  A$lcc74000$3354                    main
     00000F94  A$lcc74000$3355                    main
     00000F96  A$lcc74000$3357                    main
     00000F98  A$lcc74000$3358                    main
     00000F99  A$lcc74000$3362                    main
     00000F99  C$main.c$159$7_3$331               main
     00000F9B  A$lcc74000$3363                    main
     00000F9D  A$lcc74000$3367                    main
     00000F9D  C$main.c$161$6_3$281               main
     00000F9F  A$lcc74000$3368                    main
     00000FA0  A$lcc74000$3369                    main
     00000FA1  A$lcc74000$3370                    main
     00000FA2  A$lcc74000$3371                    main
     00000FA4  A$lcc74000$3373                    main
     00000FA6  A$lcc74000$3374                    main
     00000FA7  A$lcc74000$3375                    main
     00000FA8  A$lcc74000$3376                    main
     00000FA9  A$lcc74000$3377                    main
     00000FAC  A$lcc74000$3378                    main
     00000FAD  A$lcc74000$3379                    main
ASxxxx Linker V03.00 + NoICE + sdld,  page 57.
Hexadecimal  [32-Bits]

Area                                    Addr        Size        Decimal Bytes (Attributes)
--------------------------------        ----        ----        ------- ----- ------------
_CODE                               00000200    00001063 =        4195. bytes (REL,CON)

      Value  Global                              Global Defined In Module
      -----  --------------------------------   ------------------------
     00000FAE  A$lcc74000$3380                    main
     00000FAF  A$lcc74000$3381                    main
     00000FB0  A$lcc74000$3383                    main
     00000FB1  A$lcc74000$3386                    main
     00000FB3  A$lcc74000$3389                    main
     00000FB4  A$lcc74000$3390                    main
     00000FB5  A$lcc74000$3391                    main
     00000FB8  A$lcc74000$3392                    main
     00000FB9  A$lcc74000$3393                    main
     00000FBB  A$lcc74000$3397                    main
     00000FBB  C$main.c$162$5_3$280               main
     00000FBE  A$lcc74000$3402                    main
     00000FBE  C$main.c$166$6_3$282               main
     00000FC0  A$lcc74000$3403                    main
     00000FC1  A$lcc74000$3404                    main
     00000FC4  A$lcc74000$3405                    main
     00000FC5  A$lcc74000$3406                    main
     00000FC7  A$lcc74000$3407                    main
     00000FCA  A$lcc74000$3408                    main
     00000FCC  A$lcc74000$3409                    main
     00000FCD  A$lcc74000$3410                    main
     00000FCE  A$lcc74000$3411                    main
     00000FCF  A$lcc74000$3412                    main
     00000FD0  A$lcc74000$3413                    main
     00000FD1  A$lcc74000$3414                    main
     00000FD2  A$lcc74000$3415                    main
     00000FD5  A$lcc74000$3416                    main
     00000FD6  A$lcc74000$3417                    main
     00000FD7  A$lcc74000$3418                    main
     00000FD8  A$lcc74000$3419                    main
     00000FDA  A$lcc74000$3420                    main
     00000FDB  A$lcc74000$3421                    main
     00000FDC  A$lcc74000$3422                    main
     00000FDD  A$lcc74000$3423                    main
     00000FDF  A$lcc74000$3424                    main
     00000FE0  A$lcc74000$3425                    main
     00000FE2  A$lcc74000$3426                    main
     00000FE3  A$lcc74000$3427                    main
     00000FE5  A$lcc74000$3428                    main
     00000FE6  A$lcc74000$3429                    main
     00000FE8  A$lcc74000$3430                    main
     00000FEA  A$lcc74000$3431                    main
     00000FEB  A$lcc74000$3432                    main
     00000FEC  A$lcc74000$3433                    main
     00000FED  A$lcc74000$3434                    main
     00000FF0  A$lcc74000$3435                    main
     00000FF1  A$lcc74000$3436                    main
     00000FF2  A$lcc74000$3437                    main
     00000FF3  A$lcc74000$3438                    main
     00000FF4  A$lcc74000$3439                    main
     00000FF7  A$lcc74000$3442                    main
ASxxxx Linker V03.00 + NoICE + sdld,  page 58.
Hexadecimal  [32-Bits]

Area                                    Addr        Size        Decimal Bytes (Attributes)
--------------------------------        ----        ----        ------- ----- ------------
_CODE                               00000200    00001063 =        4195. bytes (REL,CON)

      Value  Global                              Global Defined In Module
      -----  --------------------------------   ------------------------
     00000FF9  A$lcc74000$3443                    main
     00000FFA  A$lcc74000$3444                    main
     00000FFB  A$lcc74000$3445                    main
     00000FFC  A$lcc74000$3446                    main
     00000FFD  A$lcc74000$3447                    main
     00000FFE  A$lcc74000$3448                    main
     00000FFF  A$lcc74000$3449                    main
     00001000  A$lcc74000$3450                    main
     00001001  A$lcc74000$3451                    main
     00001002  A$lcc74000$3452                    main
     00001003  A$lcc74000$3454                    main
     00001004  A$lcc74000$3455                    main
     00001005  A$lcc74000$3456                    main
     00001006  A$lcc74000$3457                    main
     00001007  A$lcc74000$3458                    main
     00001008  A$lcc74000$3459                    main
     0000100A  A$lcc74000$3460                    main
     0000100B  A$lcc74000$3461                    main
     0000100C  A$lcc74000$3465                    main
     0000100C  C$main.c$168$9_3$337               main
     0000100D  A$lcc74000$3466                    main
     0000100E  A$lcc74000$3467                    main
     00001010  A$lcc74000$3468                    main
     00001011  A$lcc74000$3469                    main
     00001013  A$lcc74000$3470                    main
     00001014  A$lcc74000$3471                    main
     00001016  A$lcc74000$3472                    main
     00001017  A$lcc74000$3474                    main
     00001019  A$lcc74000$3475                    main
     0000101A  A$lcc74000$3476                    main
     0000101B  A$lcc74000$3479                    main
     0000101C  A$lcc74000$3482                    main
     0000101D  A$lcc74000$3483                    main
     0000101E  A$lcc74000$3484                    main
     0000101F  A$lcc74000$3485                    main
     00001020  A$lcc74000$3486                    main
     00001021  A$lcc74000$3487                    main
     00001023  A$lcc74000$3488                    main
     00001024  A$lcc74000$3489                    main
     00001025  A$lcc74000$3495                    main
     00001026  A$lcc74000$3496                    main
     00001027  A$lcc74000$3497                    main
     00001028  A$lcc74000$3498                    main
     00001029  A$lcc74000$3499                    main
     0000102B  A$lcc74000$3500                    main
     0000102C  A$lcc74000$3501                    main
     0000102D  A$lcc74000$3505                    main
     0000102D  C$main.c$169$9_3$340               main
     0000102E  A$lcc74000$3506                    main
     0000102F  A$lcc74000$3507                    main
     00001031  A$lcc74000$3508                    main
ASxxxx Linker V03.00 + NoICE + sdld,  page 59.
Hexadecimal  [32-Bits]

Area                                    Addr        Size        Decimal Bytes (Attributes)
--------------------------------        ----        ----        ------- ----- ------------
_CODE                               00000200    00001063 =        4195. bytes (REL,CON)

      Value  Global                              Global Defined In Module
      -----  --------------------------------   ------------------------
     00001032  A$lcc74000$3509                    main
     00001034  A$lcc74000$3510                    main
     00001035  A$lcc74000$3511                    main
     00001037  A$lcc74000$3512                    main
     00001038  A$lcc74000$3516                    main
     00001038  C$main.c$170$7_3$283               main
     0000103A  A$lcc74000$3517                    main
     0000103B  A$lcc74000$3518                    main
     0000103C  A$lcc74000$3519                    main
     0000103D  A$lcc74000$3520                    main
     00001040  A$lcc74000$3521                    main
     00001041  A$lcc74000$3522                    main
     00001042  A$lcc74000$3523                    main
     00001043  A$lcc74000$3524                    main
     00001044  A$lcc74000$3525                    main
     00001045  A$lcc74000$3526                    main
     00001047  A$lcc74000$3527                    main
     00001048  A$lcc74000$3528                    main
     00001049  A$lcc74000$3529                    main
     0000104A  A$lcc74000$3530                    main
     0000104B  A$lcc74000$3531                    main
     0000104C  A$lcc74000$3532                    main
     0000104E  A$lcc74000$3534                    main
     00001050  A$lcc74000$3535                    main
     00001052  A$lcc74000$3537                    main
     00001053  A$lcc74000$3538                    main
     00001055  A$lcc74000$3539                    main
     00001057  A$lcc74000$3540                    main
     00001058  A$lcc74000$3541                    main
     00001059  A$lcc74000$3542                    main
     0000105A  A$lcc74000$3546                    main
     0000105A  C$main.c$171$7_3$283               main
     0000105B  A$lcc74000$3547                    main
     0000105C  A$lcc74000$3548                    main
     0000105E  A$lcc74000$3549                    main
     0000105F  A$lcc74000$3550                    main
     00001060  A$lcc74000$3551                    main
     00001061  A$lcc74000$3552                    main
     00001062  A$lcc74000$3553                    main
     00001063  A$lcc74000$3554                    main
     00001065  A$lcc74000$3556                    main
     00001067  A$lcc74000$3557                    main
     00001069  A$lcc74000$3559                    main
     0000106A  A$lcc74000$3560                    main
     0000106C  A$lcc74000$3561                    main
     0000106E  A$lcc74000$3562                    main
     0000106F  A$lcc74000$3563                    main
     00001070  A$lcc74000$3564                    main
     00001071  A$lcc74000$3566                    main
     00001073  A$lcc74000$3567                    main
     00001074  A$lcc74000$3568                    main
ASxxxx Linker V03.00 + NoICE + sdld,  page 60.
Hexadecimal  [32-Bits]

Area                                    Addr        Size        Decimal Bytes (Attributes)
--------------------------------        ----        ----        ------- ----- ------------
_CODE                               00000200    00001063 =        4195. bytes (REL,CON)

      Value  Global                              Global Defined In Module
      -----  --------------------------------   ------------------------
     00001075  A$lcc74000$3569                    main
     00001076  A$lcc74000$3570                    main
     00001078  A$lcc74000$3571                    main
     00001079  A$lcc74000$3572                    main
     0000107A  A$lcc74000$3573                    main
     0000107C  A$lcc74000$3574                    main
     0000107D  A$lcc74000$3576                    main
     0000107E  A$lcc74000$3577                    main
     0000107F  A$lcc74000$3578                    main
     00001080  A$lcc74000$3579                    main
     00001081  A$lcc74000$3580                    main
     00001082  A$lcc74000$3581                    main
     00001085  A$lcc74000$3582                    main
     00001086  A$lcc74000$3583                    main
     00001087  A$lcc74000$3584                    main
     00001088  A$lcc74000$3585                    main
     0000108A  A$lcc74000$3586                    main
     0000108B  A$lcc74000$3587                    main
     0000108C  A$lcc74000$3588                    main
     0000108D  A$lcc74000$3589                    main
     0000108F  A$lcc74000$3590                    main
     00001090  A$lcc74000$3591                    main
     00001091  A$lcc74000$3592                    main
     00001092  A$lcc74000$3593                    main
     00001093  A$lcc74000$3594                    main
     00001094  A$lcc74000$3595                    main
     00001095  A$lcc74000$3598                    main
     00001096  A$lcc74000$3599                    main
     00001097  A$lcc74000$3600                    main
     00001098  A$lcc74000$3604                    main
     00001099  A$lcc74000$3605                    main
     0000109A  A$lcc74000$3606                    main
     0000109B  A$lcc74000$3608                    main
     0000109D  A$lcc74000$3609                    main
     0000109E  A$lcc74000$3610                    main
     0000109F  A$lcc74000$3611                    main
     000010A0  A$lcc74000$3612                    main
     000010A1  A$lcc74000$3613                    main
     000010A2  A$lcc74000$3614                    main
     000010A3  A$lcc74000$3616                    main
     000010A5  A$lcc74000$3617                    main
     000010A6  A$lcc74000$3618                    main
     000010A7  A$lcc74000$3619                    main
     000010A8  A$lcc74000$3620                    main
     000010AB  A$lcc74000$3621                    main
     000010AC  A$lcc74000$3622                    main
     000010AD  A$lcc74000$3623                    main
     000010AE  A$lcc74000$3624                    main
     000010AF  A$lcc74000$3625                    main
     000010B0  A$lcc74000$3626                    main
     000010B1  A$lcc74000$3627                    main
ASxxxx Linker V03.00 + NoICE + sdld,  page 61.
Hexadecimal  [32-Bits]

Area                                    Addr        Size        Decimal Bytes (Attributes)
--------------------------------        ----        ----        ------- ----- ------------
_CODE                               00000200    00001063 =        4195. bytes (REL,CON)

      Value  Global                              Global Defined In Module
      -----  --------------------------------   ------------------------
     000010B3  A$lcc74000$3628                    main
     000010B4  A$lcc74000$3629                    main
     000010B5  A$lcc74000$3630                    main
     000010B6  A$lcc74000$3632                    main
     000010B7  A$lcc74000$3633                    main
     000010B8  A$lcc74000$3634                    main
     000010B9  A$lcc74000$3635                    main
     000010BA  A$lcc74000$3636                    main
     000010BC  A$lcc74000$3637                    main
     000010BD  A$lcc74000$3638                    main
     000010BE  A$lcc74000$3639                    main
     000010BF  A$lcc74000$3640                    main
     000010C0  A$lcc74000$3641                    main
     000010C1  A$lcc74000$3642                    main
     000010C2  A$lcc74000$3644                    main
     000010C3  A$lcc74000$3645                    main
     000010C4  A$lcc74000$3646                    main
     000010C5  A$lcc74000$3647                    main
     000010C6  A$lcc74000$3648                    main
     000010C7  A$lcc74000$3652                    main
     000010C7  C$main.c$173$7_3$283               main
     000010C9  A$lcc74000$3653                    main
     000010CA  A$lcc74000$3654                    main
     000010CB  A$lcc74000$3655                    main
     000010CC  A$lcc74000$3656                    main
     000010CF  A$lcc74000$3657                    main
     000010D0  A$lcc74000$3658                    main
     000010D1  A$lcc74000$3659                    main
     000010D2  A$lcc74000$3660                    main
     000010D3  A$lcc74000$3661                    main
     000010D4  A$lcc74000$3662                    main
     000010D6  A$lcc74000$3663                    main
     000010D7  A$lcc74000$3664                    main
     000010D8  A$lcc74000$3665                    main
     000010D9  A$lcc74000$3666                    main
     000010DA  A$lcc74000$3667                    main
     000010DD  A$lcc74000$3671                    main
     000010DD  C$main.c$174$7_3$283               main
     000010DF  A$lcc74000$3672                    main
     000010E0  A$lcc74000$3673                    main
     000010E1  A$lcc74000$3674                    main
     000010E2  A$lcc74000$3675                    main
     000010E4  A$lcc74000$3676                    main
     000010E5  A$lcc74000$3677                    main
     000010E6  A$lcc74000$3678                    main
     000010E7  A$lcc74000$3679                    main
     000010E8  A$lcc74000$3680                    main
     000010EA  A$lcc74000$3681                    main
     000010EB  A$lcc74000$3682                    main
     000010EC  A$lcc74000$3683                    main
     000010ED  A$lcc74000$3684                    main
ASxxxx Linker V03.00 + NoICE + sdld,  page 62.
Hexadecimal  [32-Bits]

Area                                    Addr        Size        Decimal Bytes (Attributes)
--------------------------------        ----        ----        ------- ----- ------------
_CODE                               00000200    00001063 =        4195. bytes (REL,CON)

      Value  Global                              Global Defined In Module
      -----  --------------------------------   ------------------------
     000010EE  A$lcc74000$3685                    main
     000010F0  A$lcc74000$3686                    main
     000010F1  A$lcc74000$3687                    main
     000010F4  A$lcc74000$3692                    main
     000010F4  C$main.c$176$6_3$282               main
     000010F6  A$lcc74000$3693                    main
     000010F7  A$lcc74000$3694                    main
     000010F8  A$lcc74000$3695                    main
     000010F9  A$lcc74000$3696                    main
     000010FC  A$lcc74000$3697                    main
     000010FD  A$lcc74000$3698                    main
     000010FE  A$lcc74000$3699                    main
     000010FF  A$lcc74000$3700                    main
     00001102  A$lcc74000$3705                    main
     00001102  C$main.c$154$3_3$278               main
     00001104  A$lcc74000$3706                    main
     00001105  A$lcc74000$3707                    main
     00001108  A$lcc74000$3712                    main
     00001108  C$main.c$181$2_3$273               main
     0000110B  A$lcc74000$3713                    main
     0000110C  A$lcc74000$3717                    main
     0000110C  C$main.c$182$2_3$273               main
     0000110D  A$lcc74000$3718                    main
     0000110F  A$lcc74000$3719                    main
     00001111  A$lcc74000$3723                    main
     00001111  C$main.c$184$3_3$284               main
     00001114  A$lcc74000$3724                    main
     00001116  A$lcc74000$3729                    main
     00001116  C$main.c$187$2_3$273               main
     00001118  A$lcc74000$3733                    main
     00001118  C$main.c$188$2_3$273               main
     00001119  A$lcc74000$3734                    main
     0000111A  A$lcc74000$3735                    main
     0000111D  A$lcc74000$3740                    main
     0000111D  C$main.c$190$1_3$269               main
     0000111F  A$lcc74000$3741                    main
     00001120  A$lcc74000$3743                    main
     00001121  A$lcc74000$3744                    main
     00001123  A$lcc74000$3745                    main
     00001125  A$lcc74000$3746                    main
     00001128  A$lcc74000$3747                    main
     0000112A  A$lcc74000$3748                    main
     0000112B  A$lcc74000$3749                    main
     0000112C  A$lcc74000$3750                    main
     0000112D  A$lcc74000$3751                    main
     0000112F  A$lcc74000$3752                    main
     00001131  A$lcc74000$3753                    main
     00001133  A$lcc74000$3754                    main
     00001134  A$lcc74000$3755                    main
     00001136  A$lcc74000$3757                    main
     00001137  A$lcc74000$3758                    main
ASxxxx Linker V03.00 + NoICE + sdld,  page 63.
Hexadecimal  [32-Bits]

Area                                    Addr        Size        Decimal Bytes (Attributes)
--------------------------------        ----        ----        ------- ----- ------------
_CODE                               00000200    00001063 =        4195. bytes (REL,CON)

      Value  Global                              Global Defined In Module
      -----  --------------------------------   ------------------------
     00001138  A$lcc74000$3759                    main
     0000113A  A$lcc74000$3761                    main
     0000113C  A$lcc74000$3762                    main
     0000113E  A$lcc74000$3767                    main
     0000113E  C$main.c$191$3_3$285               main
     00001140  A$lcc74000$3768                    main
     00001141  A$lcc74000$3769                    main
     00001142  A$lcc74000$3770                    main
     00001145  A$lcc74000$3774                    main
     00001145  C$main.c$193$4_3$286               main
     00001147  A$lcc74000$3775                    main
     00001148  A$lcc74000$3776                    main
     00001149  A$lcc74000$3777                    main
     0000114A  A$lcc74000$3778                    main
     0000114B  A$lcc74000$3779                    main
     0000114C  A$lcc74000$3780                    main
     0000114D  A$lcc74000$3781                    main
     0000114E  A$lcc74000$3782                    main
     0000114F  A$lcc74000$3783                    main
     00001150  A$lcc74000$3784                    main
     00001151  A$lcc74000$3785                    main
     00001152  A$lcc74000$3786                    main
     00001153  A$lcc74000$3787                    main
     00001154  A$lcc74000$3788                    main
     00001157  A$lcc74000$3789                    main
     00001158  A$lcc74000$3790                    main
     00001159  A$lcc74000$3791                    main
     0000115A  A$lcc74000$3792                    main
     0000115D  A$lcc74000$3793                    main
     0000115E  A$lcc74000$3794                    main
     00001160  A$lcc74000$3798                    main
     00001160  C$main.c$194$4_3$286               main
     00001163  A$lcc74000$3799                    main
     00001164  A$lcc74000$3800                    main
     00001166  A$lcc74000$3804                    main
     00001166  C$main.c$195$4_3$286               main
     00001169  A$lcc74000$3805                    main
     0000116A  A$lcc74000$3806                    main
     0000116B  A$lcc74000$3807                    main
     0000116C  A$lcc74000$3808                    main
     0000116E  A$lcc74000$3809                    main
     0000116F  A$lcc74000$3810                    main
     00001170  A$lcc74000$3811                    main
     00001171  A$lcc74000$3812                    main
     00001172  A$lcc74000$3816                    main
     00001172  C$main.c$196$4_3$286               main
     00001175  A$lcc74000$3817                    main
     00001176  A$lcc74000$3818                    main
     00001178  A$lcc74000$3822                    main
     00001178  C$main.c$197$4_3$286               main
     0000117B  A$lcc74000$3823                    main
ASxxxx Linker V03.00 + NoICE + sdld,  page 64.
Hexadecimal  [32-Bits]

Area                                    Addr        Size        Decimal Bytes (Attributes)
--------------------------------        ----        ----        ------- ----- ------------
_CODE                               00000200    00001063 =        4195. bytes (REL,CON)

      Value  Global                              Global Defined In Module
      -----  --------------------------------   ------------------------
     0000117C  A$lcc74000$3824                    main
     0000117E  A$lcc74000$3828                    main
     0000117E  C$main.c$198$4_3$286               main
     00001180  A$lcc74000$3829                    main
     00001181  A$lcc74000$3830                    main
     00001183  A$lcc74000$3831                    main
     00001184  A$lcc74000$3832                    main
     00001186  A$lcc74000$3833                    main
     00001187  A$lcc74000$3834                    main
     00001189  A$lcc74000$3835                    main
     0000118A  A$lcc74000$3836                    main
     0000118B  A$lcc74000$3837                    main
     0000118C  A$lcc74000$3838                    main
     0000118D  A$lcc74000$3839                    main
     0000118E  A$lcc74000$3840                    main
     0000118F  A$lcc74000$3841                    main
     00001190  A$lcc74000$3842                    main
     00001191  A$lcc74000$3846                    main
     00001191  C$main.c$199$4_3$286               main
     00001194  A$lcc74000$3847                    main
     00001195  A$lcc74000$3848                    main
     00001196  A$lcc74000$3849                    main
     00001197  A$lcc74000$3850                    main
     00001199  A$lcc74000$3851                    main
     0000119A  A$lcc74000$3852                    main
     0000119B  A$lcc74000$3853                    main
     0000119C  A$lcc74000$3854                    main
     0000119E  A$lcc74000$3855                    main
     0000119F  A$lcc74000$3856                    main
     000011A1  A$lcc74000$3857                    main
     000011A2  A$lcc74000$3858                    main
     000011A4  A$lcc74000$3859                    main
     000011A5  A$lcc74000$3860                    main
     000011A7  A$lcc74000$3861                    main
     000011A8  A$lcc74000$3862                    main
     000011AA  A$lcc74000$3864                    main
     000011AB  A$lcc74000$3865                    main
     000011AC  A$lcc74000$3866                    main
     000011AD  A$lcc74000$3867                    main
     000011AE  A$lcc74000$3868                    main
     000011B1  A$lcc74000$3869                    main
     000011B2  A$lcc74000$3870                    main
     000011B3  A$lcc74000$3871                    main
     000011B4  A$lcc74000$3872                    main
     000011B5  A$lcc74000$3873                    main
     000011B6  A$lcc74000$3874                    main
     000011B8  A$lcc74000$3875                    main
     000011B9  A$lcc74000$3876                    main
     000011BA  A$lcc74000$3880                    main
     000011BA  C$main.c$199$6_3$358               main
     000011BC  A$lcc74000$3881                    main
ASxxxx Linker V03.00 + NoICE + sdld,  page 65.
Hexadecimal  [32-Bits]

Area                                    Addr        Size        Decimal Bytes (Attributes)
--------------------------------        ----        ----        ------- ----- ------------
_CODE                               00000200    00001063 =        4195. bytes (REL,CON)

      Value  Global                              Global Defined In Module
      -----  --------------------------------   ------------------------
     000011BD  A$lcc74000$3882                    main
     000011BE  A$lcc74000$3883                    main
     000011BF  A$lcc74000$3884                    main
     000011C1  A$lcc74000$3885                    main
     000011C2  A$lcc74000$3886                    main
     000011C3  A$lcc74000$3887                    main
     000011C4  A$lcc74000$3888                    main
     000011C5  A$lcc74000$3889                    main
     000011C6  A$lcc74000$3893                    main
     000011C6  C$main.c$200$4_3$286               main
     000011C9  A$lcc74000$3894                    main
     000011CA  A$lcc74000$3895                    main
     000011CB  A$lcc74000$3896                    main
     000011CC  A$lcc74000$3897                    main
     000011CD  A$lcc74000$3901                    main
     000011CD  C$main.c$201$4_3$286               main
     000011D0  A$lcc74000$3902                    main
     000011D1  A$lcc74000$3903                    main
     000011D2  A$lcc74000$3904                    main
     000011D3  A$lcc74000$3905                    main
     000011D4  A$lcc74000$3909                    main
     000011D4  C$main.c$202$4_3$286               main
     000011D7  A$lcc74000$3910                    main
     000011D8  A$lcc74000$3911                    main
     000011D9  A$lcc74000$3912                    main
     000011DA  A$lcc74000$3913                    main
     000011DC  A$lcc74000$3914                    main
     000011DD  A$lcc74000$3915                    main
     000011DE  A$lcc74000$3916                    main
     000011DF  A$lcc74000$3917                    main
     000011E0  A$lcc74000$3918                    main
     000011E1  A$lcc74000$3922                    main
     000011E1  C$main.c$203$4_3$286               main
     000011E4  A$lcc74000$3923                    main
     000011E5  A$lcc74000$3924                    main
     000011E6  A$lcc74000$3925                    main
     000011E7  A$lcc74000$3926                    main
     000011E9  A$lcc74000$3927                    main
     000011EA  A$lcc74000$3928                    main
     000011EB  A$lcc74000$3929                    main
     000011EC  A$lcc74000$3930                    main
     000011ED  A$lcc74000$3931                    main
     000011EE  A$lcc74000$3935                    main
     000011EE  C$main.c$204$4_3$286               main
     000011F1  A$lcc74000$3936                    main
     000011F2  A$lcc74000$3937                    main
     000011F3  A$lcc74000$3938                    main
     000011F4  A$lcc74000$3939                    main
     000011F6  A$lcc74000$3943                    main
     000011F6  C$main.c$205$4_3$286               main
     000011F9  A$lcc74000$3944                    main
ASxxxx Linker V03.00 + NoICE + sdld,  page 66.
Hexadecimal  [32-Bits]

Area                                    Addr        Size        Decimal Bytes (Attributes)
--------------------------------        ----        ----        ------- ----- ------------
_CODE                               00000200    00001063 =        4195. bytes (REL,CON)

      Value  Global                              Global Defined In Module
      -----  --------------------------------   ------------------------
     000011FA  A$lcc74000$3945                    main
     000011FB  A$lcc74000$3946                    main
     000011FC  A$lcc74000$3947                    main
     000011FE  A$lcc74000$3951                    main
     000011FE  C$main.c$207$4_3$286               main
     00001200  A$lcc74000$3952                    main
     00001201  A$lcc74000$3956                    main
     00001201  C$main.c$208$4_3$286               main
     00001202  A$lcc74000$3957                    main
     00001203  A$lcc74000$3958                    main
     00001205  A$lcc74000$3963                    main
     00001205  C$main.c$212$4_3$287               main
     00001207  A$lcc74000$3964                    main
     00001208  A$lcc74000$3968                    main
     0000120A  A$lcc74000$3969                    main
     0000120B  A$lcc74000$3970                    main
     0000120C  A$lcc74000$3971                    main
     0000120E  A$lcc74000$3972                    main
     0000120F  A$lcc74000$3973                    main
     00001210  A$lcc74000$3974                    main
     00001212  A$lcc74000$3976                    main
     00001213  A$lcc74000$3977                    main
     00001215  A$lcc74000$3981                    main
     00001215  C$main.c$218$2_3$273               main
     00001218  A$lcc74000$3982                    main
     0000121B  A$lcc74000$3986                    main
     0000121D  A$lcc74000$3991                    main
     0000121D  C$main.c$220$1_3$269               main
     0000121D  XG$main$0$0                        main
     0000121E  __mulsuchar                        mul
     00001221  __muluschar                        mul
     0000122A  __mulschar                         mul
     00001232  __mulint                           mul
     00001251  __muluchar                         mul
ASxxxx Linker V03.00 + NoICE + sdld,  page 67.
Hexadecimal  [32-Bits]

Area                                    Addr        Size        Decimal Bytes (Attributes)
--------------------------------        ----        ----        ------- ----- ------------
_HEADER0                            00000000    00000001 =           1. bytes (ABS,CON)

      Value  Global                              Global Defined In Module
      -----  --------------------------------   ------------------------
     00000020  .call_hl                           Runtime

ASxxxx Linker V03.00 + NoICE + sdld,  page 68.
Hexadecimal  [32-Bits]

Area                                    Addr        Size        Decimal Bytes (Attributes)
--------------------------------        ----        ----        ------- ----- ------------
_HEADER1                            00000000    00000005 =           5. bytes (ABS,CON)

      Value  Global                              Global Defined In Module
      -----  --------------------------------   ------------------------
     00000028  .MemsetSmall                       Runtime

ASxxxx Linker V03.00 + NoICE + sdld,  page 69.
Hexadecimal  [32-Bits]

Area                                    Addr        Size        Decimal Bytes (Attributes)
--------------------------------        ----        ----        ------- ----- ------------
_HEADER2                            00000000    00000007 =           7. bytes (ABS,CON)

      Value  Global                              Global Defined In Module
      -----  --------------------------------   ------------------------
     00000030  .MemcpySmall                       Runtime

ASxxxx Linker V03.00 + NoICE + sdld,  page 70.
Hexadecimal  [32-Bits]

Area                                    Addr        Size        Decimal Bytes (Attributes)
--------------------------------        ----        ----        ------- ----- ------------
_HEADER3                            00000000    00000008 =           8. bytes (ABS,CON)

      Value  Global                              Global Defined In Module
      -----  --------------------------------   ------------------------
ASxxxx Linker V03.00 + NoICE + sdld,  page 71.
Hexadecimal  [32-Bits]

Area                                    Addr        Size        Decimal Bytes (Attributes)
--------------------------------        ----        ----        ------- ----- ------------
_HEADER4                            00000000    0000004C =          76. bytes (ABS,CON)

      Value  Global                              Global Defined In Module
      -----  --------------------------------   ------------------------
     00000080  .int                               Runtime
     0000008F  _wait_int_handler                  Runtime
     0000009C  __standard_VBL_handler             Runtime
     000000AC  _refresh_OAM                       Runtime

ASxxxx Linker V03.00 + NoICE + sdld,  page 72.
Hexadecimal  [32-Bits]

Area                                    Addr        Size        Decimal Bytes (Attributes)
--------------------------------        ----        ----        ------- ----- ------------
_HEADER5                            00000000    00000002 =           2. bytes (ABS,CON)

      Value  Global                              Global Defined In Module
      -----  --------------------------------   ------------------------
ASxxxx Linker V03.00 + NoICE + sdld,  page 73.
Hexadecimal  [32-Bits]

Area                                    Addr        Size        Decimal Bytes (Attributes)
--------------------------------        ----        ----        ------- ----- ------------
_HEADER6                            00000000    00000030 =          48. bytes (ABS,CON)

      Value  Global                              Global Defined In Module
      -----  --------------------------------   ------------------------
ASxxxx Linker V03.00 + NoICE + sdld,  page 74.
Hexadecimal  [32-Bits]

Area                                    Addr        Size        Decimal Bytes (Attributes)
--------------------------------        ----        ----        ------- ----- ------------
_HEADER7                            00000000    00000006 =           6. bytes (ABS,CON)

      Value  Global                              Global Defined In Module
      -----  --------------------------------   ------------------------
ASxxxx Linker V03.00 + NoICE + sdld,  page 75.
Hexadecimal  [32-Bits]

Area                                    Addr        Size        Decimal Bytes (Attributes)
--------------------------------        ----        ----        ------- ----- ------------
_HEADER8                            00000000    00000003 =           3. bytes (ABS,CON)

      Value  Global                              Global Defined In Module
      -----  --------------------------------   ------------------------
ASxxxx Linker V03.00 + NoICE + sdld,  page 76.
Hexadecimal  [32-Bits]

Area                                    Addr        Size        Decimal Bytes (Attributes)
--------------------------------        ----        ----        ------- ----- ------------
_HEADER9                            00000000    00000001 =           1. bytes (ABS,CON)

      Value  Global                              Global Defined In Module
      -----  --------------------------------   ------------------------
ASxxxx Linker V03.00 + NoICE + sdld,  page 77.
Hexadecimal  [32-Bits]

Area                                    Addr        Size        Decimal Bytes (Attributes)
--------------------------------        ----        ----        ------- ----- ------------
_HEADERa                            00000000    00000001 =           1. bytes (ABS,CON)

      Value  Global                              Global Defined In Module
      -----  --------------------------------   ------------------------
ASxxxx Linker V03.00 + NoICE + sdld,  page 78.
Hexadecimal  [32-Bits]

Area                                    Addr        Size        Decimal Bytes (Attributes)
--------------------------------        ----        ----        ------- ----- ------------
_HEADERb                            00000000    00000001 =           1. bytes (ABS,CON)

      Value  Global                              Global Defined In Module
      -----  --------------------------------   ------------------------
ASxxxx Linker V03.00 + NoICE + sdld,  page 79.
Hexadecimal  [32-Bits]

Area                                    Addr        Size        Decimal Bytes (Attributes)
--------------------------------        ----        ----        ------- ----- ------------
_HEADERc                            00000000    00000002 =           2. bytes (ABS,CON)

      Value  Global                              Global Defined In Module
      -----  --------------------------------   ------------------------
ASxxxx Linker V03.00 + NoICE + sdld,  page 80.
Hexadecimal  [32-Bits]

Area                                    Addr        Size        Decimal Bytes (Attributes)
--------------------------------        ----        ----        ------- ----- ------------
_HEADERd                            00000000    00000001 =           1. bytes (ABS,CON)

      Value  Global                              Global Defined In Module
      -----  --------------------------------   ------------------------
ASxxxx Linker V03.00 + NoICE + sdld,  page 81.
Hexadecimal  [32-Bits]

Area                                    Addr        Size        Decimal Bytes (Attributes)
--------------------------------        ----        ----        ------- ----- ------------
_HEADERe                            00000000    00000001 =           1. bytes (ABS,CON)

      Value  Global                              Global Defined In Module
      -----  --------------------------------   ------------------------
ASxxxx Linker V03.00 + NoICE + sdld,  page 82.
Hexadecimal  [32-Bits]

Area                                    Addr        Size        Decimal Bytes (Attributes)
--------------------------------        ----        ----        ------- ----- ------------
_HEADERf                            00000000    00000002 =           2. bytes (ABS,CON)

      Value  Global                              Global Defined In Module
      -----  --------------------------------   ------------------------
ASxxxx Linker V03.00 + NoICE + sdld,  page 83.
Hexadecimal  [32-Bits]

Area                                    Addr        Size        Decimal Bytes (Attributes)
--------------------------------        ----        ----        ------- ----- ------------
_HEADER10                           00000000    00000084 =         132. bytes (ABS,CON)

      Value  Global                              Global Defined In Module
      -----  --------------------------------   ------------------------
     00000150  .reset                             Runtime
     00000150  _reset                             Runtime
     00000157  .code_start                        Runtime
     000001B9  _exit                              Runtime
     000001BD  _set_interrupts                    Runtime

ASxxxx Linker V03.00 + NoICE + sdld,  page 84.
Hexadecimal  [32-Bits]

Area                                    Addr        Size        Decimal Bytes (Attributes)
--------------------------------        ----        ----        ------- ----- ------------
_HEADER11                           00000000    00000001 =           1. bytes (ABS,CON)

      Value  Global                              Global Defined In Module
      -----  --------------------------------   ------------------------
ASxxxx Linker V03.00 + NoICE + sdld,  page 85.
Hexadecimal  [32-Bits]

Area                                    Addr        Size        Decimal Bytes (Attributes)
--------------------------------        ----        ----        ------- ----- ------------
_HOME                               00001263    000003F7 =        1015. bytes (REL,CON)

      Value  Global                              Global Defined In Module
      -----  --------------------------------   ------------------------
     00001263  .memset_simple                     Runtime
     0000126C  .memcpy_simple                     Runtime
     00001289  .remove_VBL                        Runtime
     0000128C  .remove_int                        Runtime
     000012A9  .add_VBL                           Runtime
     000012AC  .add_int                           Runtime
     000012B7  .wait_vbl_done                     Runtime
     000012B7  _wait_vbl_done                     Runtime
     000012C7  .display_off                       Runtime
     000012C7  _display_off                       Runtime
     000012DF  _remove_VBL                        Runtime
     000012EA  _add_VBL                           Runtime
     000012F5  _set_tile_data                     
     000012FA  _set_bkg_data                      
     000012FA  _set_win_data                      
     00001302  _set_sprite_data                   
     00001332  __divslong                         _divslong
     00001431  __divulong                         _divulong
     000014BC  .padup                             
     000014BC  _waitpadup                         
     000014CC  .jpad                              
     000014CC  _joypad                            
     000014F4  _waitpad                           
     000014F5  .wait_pad                          
     000014FC  __mullong                          _mullong
     000015EC  _set_bkg_tiles                     
     00001600  .set_xy_wtt                        SetTileMap
     00001609  .set_xy_btt                        SetTileMap
     00001618  .set_xy_tt                         SetTileMap

ASxxxx Linker V03.00 + NoICE + sdld,  page 86.
Hexadecimal  [32-Bits]

Area                                    Addr        Size        Decimal Bytes (Attributes)
--------------------------------        ----        ----        ------- ----- ------------
_INITIALIZER                        0000165A    000004C2 =        1218. bytes (REL,CON)

      Value  Global                              Global Defined In Module
      -----  --------------------------------   ------------------------
     0000165A  Fmain$__xinit_SpaceShipTiles$0_0   main
     000016CA  Fmain$__xinit_SpaceTiles$0_0$0     main
     0000171A  Fmain$__xinit_SpaceMap$0_0$0       main
     00001B1A  Fmain$__xinit_enemyUpdate$0_0$0    main

ASxxxx Linker V03.00 + NoICE + sdld,  page 87.
Hexadecimal  [32-Bits]

Area                                    Addr        Size        Decimal Bytes (Attributes)
--------------------------------        ----        ----        ------- ----- ------------
_GSINIT                             00001B1C    0000000C =          12. bytes (REL,CON)

      Value  Global                              Global Defined In Module
      -----  --------------------------------   ------------------------
     00001B1C  gsinit                             Runtime

ASxxxx Linker V03.00 + NoICE + sdld,  page 88.
Hexadecimal  [32-Bits]

Area                                    Addr        Size        Decimal Bytes (Attributes)
--------------------------------        ----        ----        ------- ----- ------------
_GSFINAL                            00001B28    00000001 =           1. bytes (REL,CON)

      Value  Global                              Global Defined In Module
      -----  --------------------------------   ------------------------
ASxxxx Linker V03.00 + NoICE + sdld,  page 89.
Hexadecimal  [32-Bits]

Area                                    Addr        Size        Decimal Bytes (Attributes)
--------------------------------        ----        ----        ------- ----- ------------
_DATA                               0000C0A0    000000C1 =         193. bytes (REL,CON)

      Value  Global                              Global Defined In Module
      -----  --------------------------------   ------------------------
     0000C0A0  __cpu                              Runtime
     0000C0A1  __is_GBA                           Runtime
     0000C0A2  .mode                              Runtime
     0000C0A3  .sys_time                          Runtime
     0000C0A3  _sys_time                          Runtime
     0000C0A5  .int_0x40                          Runtime
     0000C0B1  G$enemies$0_0$0                    main
     0000C0B1  _enemies                           main
     0000C159  G$activeEnemies$0_0$0              main
     0000C159  _activeEnemies                     main

ASxxxx Linker V03.00 + NoICE + sdld,  page 90.
Hexadecimal  [32-Bits]

Area                                    Addr        Size        Decimal Bytes (Attributes)
--------------------------------        ----        ----        ------- ----- ------------
_INITIALIZED                        0000C161    000004C2 =        1218. bytes (REL,CON)

      Value  Global                              Global Defined In Module
      -----  --------------------------------   ------------------------
     0000C161  G$SpaceShipTiles$0_0$0             main
     0000C161  _SpaceShipTiles                    main
     0000C1D1  G$SpaceTiles$0_0$0                 main
     0000C1D1  _SpaceTiles                        main
     0000C221  G$SpaceMap$0_0$0                   main
     0000C221  _SpaceMap                          main
     0000C621  G$enemyUpdate$0_0$0                main
     0000C621  _enemyUpdate                       main
     0000C622  __map_tile_offset                  SetTileMap
ASxxxx Linker V03.00 + NoICE + sdld,  page 91.
Hexadecimal  [32-Bits]

Area                                    Addr        Size        Decimal Bytes (Attributes)
--------------------------------        ----        ----        ------- ----- ------------
_HRAM12                             00000000    00000003 =           3. bytes (ABS,CON)

      Value  Global                              Global Defined In Module
      -----  --------------------------------   ------------------------
     0000FF90  __current_bank                     Runtime
     0000FF92  __shadow_OAM_base                  Runtime

ASxxxx Linker V03.00 + NoICE + sdld,  page 92.

Files Linked                              [ module(s) ]

C:\gbdk-win64\gbdk\lib/gb/crt0.o          [ Runtime ]
C:\Users\sltam\AppData\Local\Temp/lcc74000.o
                                          [ main ]


Libraries Linked                          [ object file ]

C:\gbdk-win64\gbdk\lib/gb/gb.lib          [ sfr.o ]
C:\gbdk-win64\gbdk\lib/sm83/sm83.lib      [ mul.o ]
C:\gbdk-win64\gbdk\lib/gb/gb.lib          [ set_data.o ]
C:\gbdk-win64\gbdk\lib/sm83/sm83.lib      [ _divslong.o ]
C:\gbdk-win64\gbdk\lib/sm83/sm83.lib      [ _divulong.o ]
C:\gbdk-win64\gbdk\lib/gb/gb.lib          [ pad.o ]
C:\gbdk-win64\gbdk\lib/sm83/sm83.lib      [ _mullong.o ]
C:\gbdk-win64\gbdk\lib/gb/gb.lib          [ set_bk_t.o ]
C:\gbdk-win64\gbdk\lib/gb/gb.lib          [ set_xy_t.o ]

ASxxxx Linker V03.00 + NoICE + sdld,  page 93.

User Base Address Definitions

_DATA=0xC0A0
_CODE=0x0200
ASxxxx Linker V03.00 + NoICE + sdld,  page 94.

User Global Definitions

_shadow_OAM=0xC000
.STACK=0xE000
.refresh_OAM=0xFF80

